	.file	"v_aslib.c"
	.text
	.p2align 4,,15
	.type	asl_loc_stmt_assign_to_accum_1w_id, @function
asl_loc_stmt_assign_to_accum_1w_id:
.LFB244:
	.cfi_startproc
	movslq	240(%rdi), %r8
	movl	(%rsi), %r10d
	movq	16(%rsi), %r9
	testl	%r10d, %r10d
	leaq	0(,%r8,4), %rax
	movl	(%r9,%r8,4), %r9d
	jne	.L2
	movq	24(%rsi), %r10
	addq	64(%rsi), %rax
	testl	%r9d, %r9d
	movq	(%r10,%r8,8), %r10
	je	.L3
.L4:
	movl	(%rax), %esi
	testl	%esi, %esi
	je	.L10
.L7:
	orq	8(%r10), %rcx
	movq	(%r10), %rsi
	xorq	%rdx, %rsi
	orq	%rsi, %rcx
	movq	%rcx, 8(%r10)
	orq	%rdx, %rcx
	movq	%rcx, (%r10)
	orb	$4, 6(%rdi)
	movl	$1, (%rax)
	ret
	.p2align 4,,10
	.p2align 3
.L2:
	movq	32(%rsi), %r10
	addq	72(%rsi), %rax
	testl	%r9d, %r9d
	movq	(%r10,%r8,8), %r10
	jne	.L4
	movq	56(%rsi), %r9
	movq	(%r9,%r8,8), %r9
.L6:
	movq	40(%rsi), %rsi
	movq	__masktab@GOTPCREL(%rip), %r11
	movq	(%rsi,%r8,8), %r8
	movl	8(%rdi), %esi
	andl	$63, %esi
	movq	(%r11,%rsi,8), %rsi
	andq	%rsi, (%r8)
	andq	%rsi, (%r9)
	movl	(%rax), %esi
	testl	%esi, %esi
	jne	.L7
.L10:
	movq	%rdx, (%r10)
	movq	%rcx, 8(%r10)
	orb	$4, 6(%rdi)
	movl	$1, (%rax)
	ret
	.p2align 4,,10
	.p2align 3
.L3:
	movq	48(%rsi), %r9
	movq	(%r9,%r8,8), %r9
	jmp	.L6
	.cfi_endproc
.LFE244:
	.size	asl_loc_stmt_assign_to_accum_1w_id, .-asl_loc_stmt_assign_to_accum_1w_id
	.p2align 4,,15
	.type	asl_loc_combine_xprop_accum, @function
asl_loc_combine_xprop_accum:
.LFB254:
	.cfi_startproc
	leal	63(%rcx), %r8d
	pushq	%rbx
	.cfi_def_cfa_offset 16
	.cfi_offset 3, -16
	sarl	$6, %r8d
	movslq	%r8d, %rax
	testl	%r8d, %r8d
	leaq	0(,%rax,8), %r11
	leaq	(%rdi,%r11), %r10
	jle	.L12
	leal	-1(%r8), %eax
	leaq	8(,%rax,8), %rbx
	xorl	%eax, %eax
	.p2align 4,,10
	.p2align 3
.L13:
	movq	(%r10,%rax), %r8
	movq	(%rdi,%rax), %r9
	orq	(%rdx,%rax), %r8
	xorq	(%rsi,%rax), %r9
	orq	%r9, %r8
	movq	%r8, (%r10,%rax)
	orq	(%rsi,%rax), %r8
	movq	%r8, (%rdi,%rax)
	addq	$8, %rax
	cmpq	%rax, %rbx
	jne	.L13
.L12:
	movq	__masktab@GOTPCREL(%rip), %rdx
	leaq	-8(%r11), %rax
	andl	$63, %ecx
	movq	(%rdx,%rcx,8), %rdx
	andq	%rdx, (%rdi,%rax)
	andq	%rdx, (%r10,%rax)
	popq	%rbx
	.cfi_def_cfa_offset 8
	ret
	.cfi_endproc
.LFE254:
	.size	asl_loc_combine_xprop_accum, .-asl_loc_combine_xprop_accum
	.p2align 4,,15
	.type	asl_loc_chg_vec_lhsbsel, @function
asl_loc_chg_vec_lhsbsel:
.LFB446:
	.cfi_startproc
	movq	%rcx, %r10
	movl	%esi, %ecx
	sarl	$6, %esi
	movslq	%esi, %rsi
	pushq	%rbp
	.cfi_def_cfa_offset 16
	.cfi_offset 6, -16
	pushq	%rbx
	.cfi_def_cfa_offset 24
	.cfi_offset 3, -24
	salq	$3, %rsi
	andl	$63, %ecx
	movl	$1, %r9d
	leaq	(%rdi,%rsi), %r11
	salq	%cl, %r9
	andl	$1, %edx
	salq	%cl, %rdx
	xorl	%eax, %eax
	movq	(%r11), %rbx
	movq	%rbx, %rbp
	andq	%r9, %rbp
	cmpq	%rdx, %rbp
	je	.L17
	movq	%r9, %rax
	notq	%rax
	andq	%rbx, %rax
	orq	%rax, %rdx
	movl	$1, %eax
	movq	%rdx, (%r11)
.L17:
	addl	$63, %r8d
	andl	$1, %r10d
	sarl	$6, %r8d
	salq	%cl, %r10
	movslq	%r8d, %r8
	leaq	(%rsi,%r8,8), %rdx
	addq	%rdx, %rdi
	movq	(%rdi), %rdx
	movq	%rdx, %rsi
	andq	%r9, %rsi
	cmpq	%r10, %rsi
	je	.L16
	notq	%r9
	movl	$1, %eax
	andq	%rdx, %r9
	orq	%r10, %r9
	movq	%r9, (%rdi)
.L16:
	popq	%rbx
	.cfi_def_cfa_offset 16
	popq	%rbp
	.cfi_def_cfa_offset 8
	ret
	.cfi_endproc
.LFE446:
	.size	asl_loc_chg_vec_lhsbsel, .-asl_loc_chg_vec_lhsbsel
	.p2align 4,,15
	.type	asl_loc_stmt_assign_to_accum_wide_id, @function
asl_loc_stmt_assign_to_accum_wide_id:
.LFB246:
	.cfi_startproc
	pushq	%r15
	.cfi_def_cfa_offset 16
	.cfi_offset 15, -16
	pushq	%r14
	.cfi_def_cfa_offset 24
	.cfi_offset 14, -24
	movq	%rdx, %r15
	pushq	%r13
	.cfi_def_cfa_offset 32
	.cfi_offset 13, -32
	pushq	%r12
	.cfi_def_cfa_offset 40
	.cfi_offset 12, -40
	movq	%rdi, %r12
	pushq	%rbp
	.cfi_def_cfa_offset 48
	.cfi_offset 6, -48
	pushq	%rbx
	.cfi_def_cfa_offset 56
	.cfi_offset 3, -56
	movq	%rcx, %rbp
	subq	$24, %rsp
	.cfi_def_cfa_offset 80
	movslq	240(%rdi), %rax
	movl	8(%rdi), %edi
	movl	(%rsi), %ecx
	movq	16(%rsi), %rdx
	leal	63(%rdi), %ebx
	leaq	0(,%rax,4), %r13
	movl	(%rdx,%rax,4), %edx
	sarl	$6, %ebx
	testl	%ecx, %ecx
	jne	.L23
	movq	24(%rsi), %rcx
	addq	64(%rsi), %r13
	testl	%edx, %edx
	movq	(%rcx,%rax,8), %r14
	je	.L24
.L25:
	movl	0(%r13), %eax
	testl	%eax, %eax
	je	.L31
.L28:
	movl	8(%r12), %ecx
	movq	%rbp, %rdx
	movq	%r15, %rsi
	movq	%r14, %rdi
	call	asl_loc_combine_xprop_accum
.L29:
	orb	$4, 6(%r12)
	movl	$1, 0(%r13)
	addq	$24, %rsp
	.cfi_remember_state
	.cfi_def_cfa_offset 56
	popq	%rbx
	.cfi_def_cfa_offset 48
	popq	%rbp
	.cfi_def_cfa_offset 40
	popq	%r12
	.cfi_def_cfa_offset 32
	popq	%r13
	.cfi_def_cfa_offset 24
	popq	%r14
	.cfi_def_cfa_offset 16
	popq	%r15
	.cfi_def_cfa_offset 8
	ret
	.p2align 4,,10
	.p2align 3
.L23:
	.cfi_restore_state
	movq	32(%rsi), %rcx
	addq	72(%rsi), %r13
	testl	%edx, %edx
	movq	(%rcx,%rax,8), %r14
	jne	.L25
	movq	56(%rsi), %rdx
	movq	(%rdx,%rax,8), %rdi
	movq	%rdi, (%rsp)
.L27:
	movq	40(%rsi), %rdx
	leal	0(,%rbx,8), %ecx
	movl	$255, %esi
	movslq	%ecx, %rcx
	movq	(%rdx,%rax,8), %rdi
	movq	%rcx, %rdx
	movq	%rcx, 8(%rsp)
	call	memset@PLT
	movq	8(%rsp), %rcx
	movq	(%rsp), %rdi
	movl	$255, %esi
	movq	%rcx, %rdx
	call	memset@PLT
	movl	0(%r13), %eax
	testl	%eax, %eax
	jne	.L28
.L31:
	sall	$3, %ebx
	movq	%r15, %rsi
	movq	%r14, %rdi
	movslq	%ebx, %rbx
	movq	%rbx, %rdx
	call	memcpy@PLT
	leaq	(%r14,%rbx), %rdi
	movq	%rbx, %rdx
	movq	%rbp, %rsi
	call	memcpy@PLT
	jmp	.L29
	.p2align 4,,10
	.p2align 3
.L24:
	movq	48(%rsi), %rdx
	movq	(%rdx,%rax,8), %rdi
	movq	%rdi, (%rsp)
	jmp	.L27
	.cfi_endproc
.LFE246:
	.size	asl_loc_stmt_assign_to_accum_wide_id, .-asl_loc_stmt_assign_to_accum_wide_id
	.p2align 4,,15
	.type	asl_loc_get_new_event, @function
asl_loc_get_new_event:
.LFB145:
	.cfi_startproc
	movq	__free_tev_ndx@GOTPCREL(%rip), %rdx
	pushq	%rbx
	.cfi_def_cfa_offset 16
	.cfi_offset 3, -16
	movq	%rdi, %rbx
	movl	(%rdx), %eax
	cmpl	$1, %eax
	jle	.L33
	movq	__free_tevs@GOTPCREL(%rip), %rcx
	subl	$1, %eax
	movl	%eax, (%rdx)
	cltq
	movq	(%rcx), %rcx
	movq	(%rcx,%rax,8), %rax
.L34:
	movq	24(%rbx), %rdx
	movq	%rdx, 24(%rax)
	movq	56(%rbx), %rdx
	movq	$0, (%rax)
	movq	%rdx, 56(%rax)
	movq	64(%rbx), %rdx
	movq	$1, 16(%rax)
	movq	%rdx, 64(%rax)
	movq	__process_next_event_free_enterp@GOTPCREL(%rip), %rdx
	movq	(%rdx), %rdx
	movq	%rdx, 32(%rax)
	popq	%rbx
	.cfi_remember_state
	.cfi_def_cfa_offset 8
	ret
	.p2align 4,,10
	.p2align 3
.L33:
	.cfi_restore_state
	movl	$104, %edi
	call	__my_malloc@PLT
	jmp	.L34
	.cfi_endproc
.LFE145:
	.size	asl_loc_get_new_event, .-asl_loc_get_new_event
	.p2align 4,,15
	.type	asl_loc_get_new_event_nb, @function
asl_loc_get_new_event_nb:
.LFB146:
	.cfi_startproc
	movq	__free_tev_ndx@GOTPCREL(%rip), %rdx
	pushq	%rbx
	.cfi_def_cfa_offset 16
	.cfi_offset 3, -16
	movq	%rdi, %rbx
	movl	(%rdx), %eax
	cmpl	$1, %eax
	jle	.L37
	movq	__free_tevs@GOTPCREL(%rip), %rcx
	subl	$1, %eax
	movl	%eax, (%rdx)
	cltq
	movq	(%rcx), %rcx
	movq	(%rcx,%rax,8), %rax
.L38:
	movq	32(%rbx), %rdx
	movq	%rdx, 24(%rax)
	movq	56(%rbx), %rdx
	movq	%rdx, 56(%rax)
	movq	64(%rbx), %rdx
	movq	$0, (%rax)
	movq	$1, 16(%rax)
	movq	%rdx, 64(%rax)
	popq	%rbx
	.cfi_remember_state
	.cfi_def_cfa_offset 8
	ret
	.p2align 4,,10
	.p2align 3
.L37:
	.cfi_restore_state
	movl	$104, %edi
	call	__my_malloc@PLT
	jmp	.L38
	.cfi_endproc
.LFE146:
	.size	asl_loc_get_new_event_nb, .-asl_loc_get_new_event_nb
	.p2align 4,,15
	.type	asl_loc_get_new_nbmem_event, @function
asl_loc_get_new_nbmem_event:
.LFB147:
	.cfi_startproc
	pushq	%r12
	.cfi_def_cfa_offset 16
	.cfi_offset 12, -16
	pushq	%rbp
	.cfi_def_cfa_offset 24
	.cfi_offset 6, -24
	movq	%rdi, %r12
	pushq	%rbx
	.cfi_def_cfa_offset 32
	.cfi_offset 3, -32
	subq	$16, %rsp
	.cfi_def_cfa_offset 48
	movq	__free_tev_ndx@GOTPCREL(%rip), %rdx
	movl	(%rdx), %eax
	cmpl	$1, %eax
	jle	.L41
	movq	__free_tevs@GOTPCREL(%rip), %rcx
	subl	$1, %eax
	movl	%eax, (%rdx)
	cltq
	movq	(%rcx), %rcx
	movq	(%rcx,%rax,8), %rbx
.L42:
	movq	32(%r12), %rax
	movslq	%esi, %rbp
	movq	%rbp, %rdi
	movq	%rax, 24(%rbx)
	movq	56(%r12), %rax
	movq	$0, (%rbx)
	movq	%rax, 56(%rbx)
	call	__my_malloc@PLT
	movq	%rax, 8(%rbx)
	movq	64(%r12), %rax
	movq	$1, 16(%rbx)
	movq	%rbp, 88(%rbx)
	movq	%rax, 64(%rbx)
	addq	$16, %rsp
	.cfi_remember_state
	.cfi_def_cfa_offset 32
	movq	%rbx, %rax
	popq	%rbx
	.cfi_def_cfa_offset 24
	popq	%rbp
	.cfi_def_cfa_offset 16
	popq	%r12
	.cfi_def_cfa_offset 8
	ret
	.p2align 4,,10
	.p2align 3
.L41:
	.cfi_restore_state
	movl	$104, %edi
	movl	%esi, 12(%rsp)
	call	__my_malloc@PLT
	movl	12(%rsp), %esi
	movq	%rax, %rbx
	jmp	.L42
	.cfi_endproc
.LFE147:
	.size	asl_loc_get_new_nbmem_event, .-asl_loc_get_new_nbmem_event
	.p2align 4,,15
	.type	asl_loc_get_new_thread_event, @function
asl_loc_get_new_thread_event:
.LFB148:
	.cfi_startproc
	subq	$8, %rsp
	.cfi_def_cfa_offset 16
	movq	__free_tev_ndx@GOTPCREL(%rip), %rdx
	movl	(%rdx), %eax
	cmpl	$1, %eax
	jle	.L45
	movq	__free_tevs@GOTPCREL(%rip), %rcx
	subl	$1, %eax
	movl	%eax, (%rdx)
	cltq
	movq	(%rcx), %rcx
	movq	(%rcx,%rax,8), %rax
.L46:
	movq	__process_compiled_thrd_ev_enterp@GOTPCREL(%rip), %rdx
	movq	$1, 16(%rax)
	movq	(%rdx), %rdx
	movq	%rdx, 24(%rax)
	movq	__simtime@GOTPCREL(%rip), %rdx
	movq	(%rdx), %rdx
	movq	%rdx, 48(%rax)
	movq	__idp@GOTPCREL(%rip), %rdx
	movq	(%rdx), %rdx
	movq	$0, (%rax)
	movq	%rdx, 56(%rax)
	movq	__process_next_event_free_enterp@GOTPCREL(%rip), %rdx
	movq	(%rdx), %rdx
	movq	%rdx, 32(%rax)
	addq	$8, %rsp
	.cfi_remember_state
	.cfi_def_cfa_offset 8
	ret
	.p2align 4,,10
	.p2align 3
.L45:
	.cfi_restore_state
	movl	$104, %edi
	call	__my_malloc@PLT
	jmp	.L46
	.cfi_endproc
.LFE148:
	.size	asl_loc_get_new_thread_event, .-asl_loc_get_new_thread_event
	.p2align 4,,15
	.type	asl_loc_add_new_heap_time, @function
asl_loc_add_new_heap_time:
.LFB474:
	.cfi_startproc
	pushq	%r15
	.cfi_def_cfa_offset 16
	.cfi_offset 15, -16
	pushq	%r14
	.cfi_def_cfa_offset 24
	.cfi_offset 14, -24
	movq	%rdi, %r15
	pushq	%r13
	.cfi_def_cfa_offset 32
	.cfi_offset 13, -32
	pushq	%r12
	.cfi_def_cfa_offset 40
	.cfi_offset 12, -40
	movslq	%esi, %r13
	pushq	%rbp
	.cfi_def_cfa_offset 48
	.cfi_offset 6, -48
	pushq	%rbx
	.cfi_def_cfa_offset 56
	.cfi_offset 3, -56
	subq	$24, %rsp
	.cfi_def_cfa_offset 80
	movq	__heap_size@GOTPCREL(%rip), %rbx
	movq	__heap_maxsize@GOTPCREL(%rip), %rax
	movq	__heap@GOTPCREL(%rip), %r12
	movslq	(%rbx), %rcx
	cmpl	(%rax), %ecx
	movq	(%r12), %rdi
	movq	%rcx, %r10
	leaq	0(,%rcx,8), %rbp
	je	.L49
	movq	__free_heap_ndx@GOTPCREL(%rip), %rcx
	movq	__free_heap@GOTPCREL(%rip), %rax
	movl	(%rcx), %edx
	movq	(%rax), %r8
.L50:
	leal	-1(%rdx), %eax
	movq	48(%r15), %r11
	movq	__time_hash@GOTPCREL(%rip), %rdx
	cmpl	$1, %r10d
	movl	%eax, (%rcx)
	cltq
	movq	(%r8,%rax,8), %rax
	movq	$0, 80(%r15)
	movq	%rax, 40(%r15)
	movl	%r13d, (%rax)
	movq	%r11, 8(%rax)
	movq	$0, 48(%rax)
	movq	%rax, (%rdx,%r13,8)
	jle	.L54
	movl	%r10d, %esi
	sarl	%esi
	movslq	%esi, %rdx
	movq	(%rdi,%rdx,8), %r8
	cmpq	8(%r8), %r11
	ja	.L54
	movslq	%r10d, %rcx
	jmp	.L55
	.p2align 4,,10
	.p2align 3
.L56:
	movl	%esi, %r9d
	movslq	%esi, %rcx
	sarl	%r9d
	movslq	%r9d, %rdx
	movq	(%rdi,%rdx,8), %r8
	cmpq	%r11, 8(%r8)
	jb	.L54
	movl	%r9d, %esi
.L55:
	cmpl	$1, %esi
	movq	%r8, (%rdi,%rcx,8)
	leaq	0(,%rdx,8), %rbp
	jne	.L56
.L54:
	addl	$1, %r10d
	movl	%r10d, (%rbx)
	movq	%rax, (%rdi,%rbp)
	addq	$24, %rsp
	.cfi_remember_state
	.cfi_def_cfa_offset 56
	popq	%rbx
	.cfi_def_cfa_offset 48
	popq	%rbp
	.cfi_def_cfa_offset 40
	popq	%r12
	.cfi_def_cfa_offset 32
	popq	%r13
	.cfi_def_cfa_offset 24
	popq	%r14
	.cfi_def_cfa_offset 16
	popq	%r15
	.cfi_def_cfa_offset 8
	ret
	.p2align 4,,10
	.p2align 3
.L49:
	.cfi_restore_state
	shrq	%rcx
	movq	%rbp, %rsi
	addl	%ecx, %r10d
	movq	%rcx, %r14
	movl	%r10d, (%rax)
	movslq	%r10d, %r10
	salq	$3, %r10
	movq	%r10, %rdx
	movq	%r10, 8(%rsp)
	call	__my_realloc@PLT
	movq	%rax, (%r12)
	movq	__free_heap@GOTPCREL(%rip), %rax
	movq	%rbp, %rsi
	movq	(%rax), %rdi
	call	__my_free@PLT
	movq	8(%rsp), %r10
	movq	%r10, %rdi
	call	__my_malloc@PLT
	movq	__free_heap@GOTPCREL(%rip), %rdi
	movq	%rax, (%rdi)
	movslq	%r14d, %rax
	leaq	0(,%rax,8), %rdi
	subq	%rax, %rdi
	salq	$3, %rdi
	call	__my_malloc@PLT
	leal	1(%r14), %edx
	cmpl	$1, %edx
	jle	.L51
	movq	__free_heap@GOTPCREL(%rip), %rdi
	leal	-1(%r14), %ecx
	addq	$1, %rcx
	movq	(%rdi), %r8
	leaq	0(,%rcx,8), %rdi
	subq	%rcx, %rdi
	leaq	8(%r8), %rsi
	leaq	(%rax,%rdi,8), %rcx
	.p2align 4,,10
	.p2align 3
.L52:
	movq	%rax, (%rsi)
	addq	$56, %rax
	addq	$8, %rsi
	cmpq	%rcx, %rax
	jne	.L52
.L53:
	movslq	(%rbx), %rbp
	movq	(%r12), %rdi
	movq	__free_heap_ndx@GOTPCREL(%rip), %rcx
	movq	%rbp, %r10
	salq	$3, %rbp
	jmp	.L50
.L51:
	movq	__free_heap@GOTPCREL(%rip), %rax
	movq	(%rax), %r8
	jmp	.L53
	.cfi_endproc
.LFE474:
	.size	asl_loc_add_new_heap_time, .-asl_loc_add_new_heap_time
	.p2align 4,,15
	.type	asl_loc_conflict_list, @function
asl_loc_conflict_list:
.LFB469:
	.cfi_startproc
	pushq	%r13
	.cfi_def_cfa_offset 16
	.cfi_offset 13, -16
	pushq	%r12
	.cfi_def_cfa_offset 24
	.cfi_offset 12, -24
	movq	%rsi, %r13
	pushq	%rbp
	.cfi_def_cfa_offset 32
	.cfi_offset 6, -32
	pushq	%rbx
	.cfi_def_cfa_offset 40
	.cfi_offset 3, -40
	movq	%rdi, %r12
	subq	$8, %rsp
	.cfi_def_cfa_offset 48
	movq	48(%rdi), %rax
	cmpq	%rax, 8(%rsi)
	ja	.L74
	movq	48(%rsi), %rbp
	testq	%rbp, %rbp
	je	.L69
	cmpq	%rax, 8(%rbp)
	je	.L70
	jbe	.L65
	jmp	.L75
	.p2align 4,,10
	.p2align 3
.L68:
	cmpq	%rax, 8(%rbx)
	je	.L63
	ja	.L64
	movq	%rbx, %rbp
.L65:
	movq	48(%rbp), %rbx
	testq	%rbx, %rbx
	jne	.L68
.L62:
	movl	0(%r13), %esi
	movq	%r12, %rdi
	call	asl_loc_add_new_heap_time
	movslq	0(%r13), %rcx
	movq	__time_hash@GOTPCREL(%rip), %rdx
	movq	%r13, (%rdx,%rcx,8)
	movq	%rax, 48(%rbp)
	movq	%r12, 24(%rax)
	movq	%r12, 16(%rax)
	movq	$0, 40(%rax)
	movq	$0, 32(%rax)
.L59:
	addq	$8, %rsp
	.cfi_remember_state
	.cfi_def_cfa_offset 40
	popq	%rbx
	.cfi_def_cfa_offset 32
	popq	%rbp
	.cfi_def_cfa_offset 24
	popq	%r12
	.cfi_def_cfa_offset 16
	popq	%r13
	.cfi_def_cfa_offset 8
	ret
	.p2align 4,,10
	.p2align 3
.L74:
	.cfi_restore_state
	movl	(%rsi), %esi
	call	asl_loc_add_new_heap_time
	movq	%r13, 48(%rax)
	movq	%r12, 24(%rax)
	movq	%r12, 16(%rax)
	movq	$0, 40(%rax)
	movq	$0, 32(%rax)
	addq	$8, %rsp
	.cfi_remember_state
	.cfi_def_cfa_offset 40
	popq	%rbx
	.cfi_def_cfa_offset 32
	popq	%rbp
	.cfi_def_cfa_offset 24
	popq	%r12
	.cfi_def_cfa_offset 16
	popq	%r13
	.cfi_def_cfa_offset 8
	ret
.L70:
	.cfi_restore_state
	movq	%rbp, %rbx
	.p2align 4,,10
	.p2align 3
.L63:
	movq	24(%rbx), %rax
	movq	%rbx, 40(%r12)
	testq	%rax, %rax
	je	.L76
	movq	%r12, 72(%rax)
	movq	%rax, 80(%r12)
	movq	%r12, 24(%rbx)
	addq	$8, %rsp
	.cfi_remember_state
	.cfi_def_cfa_offset 40
	popq	%rbx
	.cfi_def_cfa_offset 32
	popq	%rbp
	.cfi_def_cfa_offset 24
	popq	%r12
	.cfi_def_cfa_offset 16
	popq	%r13
	.cfi_def_cfa_offset 8
	ret
.L75:
	.cfi_restore_state
	movq	%rbp, %rbx
	movq	%rsi, %rbp
.L64:
	movl	0(%r13), %esi
	movq	%r12, %rdi
	call	asl_loc_add_new_heap_time
	movslq	0(%r13), %rcx
	movq	__time_hash@GOTPCREL(%rip), %rdx
	movq	%r13, (%rdx,%rcx,8)
	movq	%rax, 48(%rbp)
	movq	%rbx, 48(%rax)
	movq	%r12, 24(%rax)
	movq	%r12, 16(%rax)
	movq	$0, 40(%rax)
	movq	$0, 32(%rax)
	addq	$8, %rsp
	.cfi_remember_state
	.cfi_def_cfa_offset 40
	popq	%rbx
	.cfi_def_cfa_offset 32
	popq	%rbp
	.cfi_def_cfa_offset 24
	popq	%r12
	.cfi_def_cfa_offset 16
	popq	%r13
	.cfi_def_cfa_offset 8
	ret
	.p2align 4,,10
	.p2align 3
.L76:
	.cfi_restore_state
	movq	%r12, 24(%rbx)
	movq	%r12, 16(%rbx)
	jmp	.L59
.L69:
	movq	%rsi, %rbp
	jmp	.L62
	.cfi_endproc
.LFE469:
	.size	asl_loc_conflict_list, .-asl_loc_conflict_list
	.p2align 4,,15
	.type	asl_loc_nb_conflict_list, @function
asl_loc_nb_conflict_list:
.LFB473:
	.cfi_startproc
	pushq	%r13
	.cfi_def_cfa_offset 16
	.cfi_offset 13, -16
	pushq	%r12
	.cfi_def_cfa_offset 24
	.cfi_offset 12, -24
	movq	%rsi, %r13
	pushq	%rbp
	.cfi_def_cfa_offset 32
	.cfi_offset 6, -32
	pushq	%rbx
	.cfi_def_cfa_offset 40
	.cfi_offset 3, -40
	movq	%rdi, %r12
	subq	$8, %rsp
	.cfi_def_cfa_offset 48
	movq	48(%rdi), %rax
	cmpq	%rax, 8(%rsi)
	ja	.L92
	movq	48(%rsi), %rbp
	testq	%rbp, %rbp
	je	.L87
	cmpq	%rax, 8(%rbp)
	je	.L88
	jbe	.L83
	jmp	.L93
	.p2align 4,,10
	.p2align 3
.L86:
	cmpq	%rax, 8(%rbx)
	je	.L81
	ja	.L82
	movq	%rbx, %rbp
.L83:
	movq	48(%rbp), %rbx
	testq	%rbx, %rbx
	jne	.L86
.L80:
	movl	0(%r13), %esi
	movq	%r12, %rdi
	call	asl_loc_add_new_heap_time
	movslq	0(%r13), %rcx
	movq	__time_hash@GOTPCREL(%rip), %rdx
	movq	%r13, (%rdx,%rcx,8)
	movq	__last_nb_hp@GOTPCREL(%rip), %rdx
	movq	%rax, 48(%rbp)
	movq	%rax, (%rdx)
	movq	%r12, 40(%rax)
	movq	%r12, 32(%rax)
	movq	$0, 24(%rax)
	movq	$0, 16(%rax)
.L77:
	addq	$8, %rsp
	.cfi_remember_state
	.cfi_def_cfa_offset 40
	popq	%rbx
	.cfi_def_cfa_offset 32
	popq	%rbp
	.cfi_def_cfa_offset 24
	popq	%r12
	.cfi_def_cfa_offset 16
	popq	%r13
	.cfi_def_cfa_offset 8
	ret
	.p2align 4,,10
	.p2align 3
.L92:
	.cfi_restore_state
	movl	(%rsi), %esi
	call	asl_loc_add_new_heap_time
	movq	__last_nb_hp@GOTPCREL(%rip), %rdx
	movq	%r13, 48(%rax)
	movq	%rax, (%rdx)
	movq	%r12, 40(%rax)
	movq	%r12, 32(%rax)
	movq	$0, 24(%rax)
	movq	$0, 16(%rax)
	addq	$8, %rsp
	.cfi_remember_state
	.cfi_def_cfa_offset 40
	popq	%rbx
	.cfi_def_cfa_offset 32
	popq	%rbp
	.cfi_def_cfa_offset 24
	popq	%r12
	.cfi_def_cfa_offset 16
	popq	%r13
	.cfi_def_cfa_offset 8
	ret
.L88:
	.cfi_restore_state
	movq	%rbp, %rbx
	.p2align 4,,10
	.p2align 3
.L81:
	movq	40(%rbx), %rax
	movq	__last_nb_hp@GOTPCREL(%rip), %rdx
	testq	%rax, %rax
	movq	%rbx, (%rdx)
	je	.L94
	movq	%r12, 72(%rax)
	movq	%rax, 80(%r12)
	movq	%r12, 40(%rbx)
	addq	$8, %rsp
	.cfi_remember_state
	.cfi_def_cfa_offset 40
	popq	%rbx
	.cfi_def_cfa_offset 32
	popq	%rbp
	.cfi_def_cfa_offset 24
	popq	%r12
	.cfi_def_cfa_offset 16
	popq	%r13
	.cfi_def_cfa_offset 8
	ret
.L93:
	.cfi_restore_state
	movq	%rbp, %rbx
	movq	%rsi, %rbp
.L82:
	movl	0(%r13), %esi
	movq	%r12, %rdi
	call	asl_loc_add_new_heap_time
	movslq	0(%r13), %rcx
	movq	__time_hash@GOTPCREL(%rip), %rdx
	movq	%r13, (%rdx,%rcx,8)
	movq	__last_nb_hp@GOTPCREL(%rip), %rdx
	movq	%rax, 48(%rbp)
	movq	%rbx, 48(%rax)
	movq	%rax, (%rdx)
	movq	%r12, 40(%rax)
	movq	%r12, 32(%rax)
	movq	$0, 24(%rax)
	movq	$0, 16(%rax)
	addq	$8, %rsp
	.cfi_remember_state
	.cfi_def_cfa_offset 40
	popq	%rbx
	.cfi_def_cfa_offset 32
	popq	%rbp
	.cfi_def_cfa_offset 24
	popq	%r12
	.cfi_def_cfa_offset 16
	popq	%r13
	.cfi_def_cfa_offset 8
	ret
	.p2align 4,,10
	.p2align 3
.L94:
	.cfi_restore_state
	movq	%r12, 40(%rbx)
	movq	%r12, 32(%rbx)
	jmp	.L77
.L87:
	movq	%rsi, %rbp
	jmp	.L80
	.cfi_endproc
.LFE473:
	.size	asl_loc_nb_conflict_list, .-asl_loc_nb_conflict_list
	.p2align 4,,15
	.type	asl_loc_add_dmpv_chglst_el_mdprt, @function
asl_loc_add_dmpv_chglst_el_mdprt:
.LFB451:
	.cfi_startproc
	testb	$1, 6(%rdi)
	pushq	%rbx
	.cfi_def_cfa_offset 16
	.cfi_offset 3, -16
	movq	%rdi, %rbx
	jne	.L102
.L96:
	movq	__idp@GOTPCREL(%rip), %rax
	movq	(%rax), %rdx
	movq	96(%rbx), %rax
	leaq	(%rdx,%rax,8), %rcx
	movq	(%rcx), %rax
	movq	%rax, %rsi
	andl	$3, %esi
	cmpq	$3, %rsi
	je	.L103
	popq	%rbx
	.cfi_remember_state
	.cfi_def_cfa_offset 8
	ret
	.p2align 4,,10
	.p2align 3
.L103:
	.cfi_restore_state
	andq	$-3, %rax
	movq	%rax, (%rcx)
	movslq	(%rdx), %rax
	movq	__dv_chgnethdr@GOTPCREL(%rip), %rdx
	leaq	(%rax,%rax,2), %rax
	movq	(%rdx), %rcx
	salq	$4, %rax
	addq	200(%rbx), %rax
	movq	%rcx, 40(%rax)
	movq	%rax, (%rdx)
	movq	__slotend_action@GOTPCREL(%rip), %rax
	orq	$32, (%rax)
	popq	%rbx
	.cfi_remember_state
	.cfi_def_cfa_offset 8
	ret
	.p2align 4,,10
	.p2align 3
.L102:
	.cfi_restore_state
	call	__add_togglelst_el@PLT
	jmp	.L96
	.cfi_endproc
.LFE451:
	.size	asl_loc_add_dmpv_chglst_el_mdprt, .-asl_loc_add_dmpv_chglst_el_mdprt
	.section	.rodata.str1.8,"aMS",@progbits,1
	.align 8
.LC0:
	.string	"attempted deassign of reg %s in instance %s failed - not assigned"
	.text
	.p2align 4,,15
	.type	asl_loc_do_qc_deassign, @function
asl_loc_do_qc_deassign:
.LFB205:
	.cfi_startproc
	pushq	%r15
	.cfi_def_cfa_offset 16
	.cfi_offset 15, -16
	pushq	%r14
	.cfi_def_cfa_offset 24
	.cfi_offset 14, -24
	pushq	%r13
	.cfi_def_cfa_offset 32
	.cfi_offset 13, -32
	pushq	%r12
	.cfi_def_cfa_offset 40
	.cfi_offset 12, -40
	movq	%rdi, %r12
	pushq	%rbp
	.cfi_def_cfa_offset 48
	.cfi_offset 6, -48
	pushq	%rbx
	.cfi_def_cfa_offset 56
	.cfi_offset 3, -56
	subq	$8, %rsp
	.cfi_def_cfa_offset 64
	movzwl	(%rdi), %eax
	andw	$1023, %ax
	cmpw	$85, %ax
	je	.L105
	movq	__idp@GOTPCREL(%rip), %r13
	xorl	%r14d, %r14d
	movq	0(%r13), %rax
.L106:
	movq	16(%r12), %rdx
	movq	(%rax), %rbx
	movq	16(%rdx), %rdx
	addl	%ebx, %ebx
	movslq	%ebx, %rbx
	leaq	5(%rbx,%rbx,4), %rax
	movq	120(%rdx), %r15
	leaq	(%r15,%rax,8), %rbp
	movzbl	0(%rbp), %eax
	testb	$3, %al
	je	.L121
	movl	%eax, %edx
	andl	$-2, %edx
	testb	$2, %al
	movb	%dl, 0(%rbp)
	jne	.L109
	movq	32(%rbp), %rdi
	testq	%rdi, %rdi
	je	.L109
	call	__dcelst_off@PLT
.L109:
	movq	__assign_active@GOTPCREL(%rip), %rax
	andb	$-3, 0(%rbp)
	movq	$0, 32(%rbp)
	movl	$0, (%rax)
	leaq	(%rbx,%rbx,4), %rax
	testb	$1, (%r15,%rax,8)
	jne	.L122
.L108:
	testq	%r14, %r14
	je	.L104
	movq	%r14, 0(%r13)
.L104:
	addq	$8, %rsp
	.cfi_remember_state
	.cfi_def_cfa_offset 56
	popq	%rbx
	.cfi_def_cfa_offset 48
	popq	%rbp
	.cfi_def_cfa_offset 40
	popq	%r12
	.cfi_def_cfa_offset 32
	popq	%r13
	.cfi_def_cfa_offset 24
	popq	%r14
	.cfi_def_cfa_offset 16
	popq	%r15
	.cfi_def_cfa_offset 8
	ret
	.p2align 4,,10
	.p2align 3
.L122:
	.cfi_restore_state
	movq	__force_active@GOTPCREL(%rip), %rax
	movl	$1, (%rax)
	jmp	.L108
	.p2align 4,,10
	.p2align 3
.L121:
	movq	__xs@GOTPCREL(%rip), %rax
	movq	(%rax), %rdi
	call	__msg2_cur_blditree@PLT
	movq	%r12, %rdi
	movq	%rax, %rbx
	call	__to_idnam@PLT
	leaq	.LC0(%rip), %rsi
	movq	%rax, %rdx
	movq	%rbx, %rcx
	movl	$462, %edi
	xorl	%eax, %eax
	call	__sgfinform@PLT
	jmp	.L108
	.p2align 4,,10
	.p2align 3
.L105:
	movq	24(%rdi), %rdi
	call	__xmrget_refgrp_to_targ@PLT
	movq	__idp@GOTPCREL(%rip), %r13
	movq	0(%r13), %r14
	movq	%rax, 0(%r13)
	jmp	.L106
	.cfi_endproc
.LFE205:
	.size	asl_loc_do_qc_deassign, .-asl_loc_do_qc_deassign
	.p2align 4,,15
	.type	asl_loc_set_restore_xprop_accum_block, @function
asl_loc_set_restore_xprop_accum_block:
.LFB252:
	.cfi_startproc
	movl	4(%rdi), %ecx
	andb	$-33, 8(%rdi)
	testl	%ecx, %ecx
	jle	.L192
	pushq	%r15
	.cfi_def_cfa_offset 16
	.cfi_offset 15, -16
	pushq	%r14
	.cfi_def_cfa_offset 24
	.cfi_offset 14, -24
	xorl	%r14d, %r14d
	pushq	%r13
	.cfi_def_cfa_offset 32
	.cfi_offset 13, -32
	pushq	%r12
	.cfi_def_cfa_offset 40
	.cfi_offset 12, -40
	movq	%rdi, %r13
	pushq	%rbp
	.cfi_def_cfa_offset 48
	.cfi_offset 6, -48
	pushq	%rbx
	.cfi_def_cfa_offset 56
	.cfi_offset 3, -56
	subq	$88, %rsp
	.cfi_def_cfa_offset 144
	movl	%esi, 20(%rsp)
	.p2align 4,,10
	.p2align 3
.L148:
	movq	80(%r13), %rax
	movl	0(%r13), %edx
	leaq	0(,%r14,8), %r15
	movq	(%rax,%r14,8), %rbp
	movl	8(%rbp), %ecx
	movq	232(%rbp), %r12
	leal	63(%rcx), %eax
	sarl	$6, %eax
	testl	%edx, %edx
	movl	%eax, 8(%rsp)
	movq	32(%r13), %rax
	movq	(%rax,%r14,8), %rsi
	movq	24(%r13), %rax
	movq	(%rax,%r14,8), %rax
	movq	%rax, (%rsp)
	je	.L125
	movq	%rsi, (%rsp)
	movq	%rax, %rsi
.L125:
	movl	20(%rsp), %eax
	testl	%eax, %eax
	jne	.L197
.L126:
	movl	8(%rsp), %ebx
	movq	(%rsp), %rsi
	movq	%r12, %rdi
	sall	$4, %ebx
	movslq	%ebx, %rbx
	movq	%rbx, %rdx
	call	memcpy@PLT
	movq	16(%r13), %rax
	leaq	0(,%r14,4), %r9
	movl	(%rax,%r14,4), %eax
	testl	%eax, %eax
	je	.L127
	movq	64(%r13), %rcx
	movq	72(%r13), %rsi
	movl	(%rcx,%r14,4), %edi
	movl	(%rsi,%r14,4), %edx
	cmpl	%edx, %edi
	je	.L128
	movl	20(%rsp), %eax
	testl	%eax, %eax
	jne	.L198
.L128:
	movq	104(%r13), %rax
	movq	96(%r13), %r10
	addq	%r9, %r10
	testq	%rax, %rax
	je	.L133
	testb	$32, 8(%rax)
	je	.L133
	movl	0(%r13), %r15d
	testl	%r15d, %r15d
	cmove	%edi, %edx
	testl	%edx, %edx
	je	.L133
	movslq	(%r10), %rsi
	movl	(%rax), %r12d
	movq	%r9, 8(%rsp)
	testl	%r12d, %r12d
	leaq	0(,%rsi,4), %rcx
	jne	.L135
	addq	64(%rax), %rcx
	movq	24(%rax), %rax
	orl	%edx, (%rcx)
.L195:
	movq	(%rax,%rsi,8), %rdi
	movq	(%rsp), %rsi
	movq	%rbx, %rdx
	call	memcpy@PLT
	movq	8(%rsp), %r9
	movq	96(%r13), %r10
	movq	64(%r13), %rcx
	movq	72(%r13), %rsi
	addq	%r9, %r10
	.p2align 4,,10
	.p2align 3
.L133:
	movl	$-1, (%rcx,%r9)
	movl	$-1, (%rsi,%r9)
	movl	(%r10), %ecx
.L136:
	leal	1(%r14), %eax
	addq	$1, %r14
	cmpl	%eax, 4(%r13)
	movl	%ecx, 240(%rbp)
	jg	.L148
	addq	$88, %rsp
	.cfi_remember_state
	.cfi_def_cfa_offset 56
	popq	%rbx
	.cfi_def_cfa_offset 48
	popq	%rbp
	.cfi_def_cfa_offset 40
	popq	%r12
	.cfi_def_cfa_offset 32
	popq	%r13
	.cfi_def_cfa_offset 24
	popq	%r14
	.cfi_def_cfa_offset 16
	popq	%r15
	.cfi_def_cfa_offset 8
	ret
	.p2align 4,,10
	.p2align 3
.L127:
	.cfi_restore_state
	movq	48(%r13), %rax
	movl	20(%rsp), %r11d
	movq	(%rax,%r15), %rbx
	movq	56(%r13), %rax
	testl	%r11d, %r11d
	movq	(%rax,%r15), %rax
	jne	.L199
.L137:
	movq	104(%r13), %rdx
	movq	96(%r13), %rcx
	testq	%rdx, %rdx
	movl	(%rcx,%r9), %ecx
	je	.L136
	testb	$32, 8(%rdx)
	je	.L136
	movl	0(%r13), %esi
	movl	(%rdx), %r8d
	movq	40(%rdx), %rdi
	testl	%esi, %esi
	movq	40(%r13), %rsi
	cmove	%rbx, %rax
	testl	%r8d, %r8d
	movq	(%rsi,%r15), %r15
	movslq	%ecx, %rsi
	movq	(%rdi,%rsi,8), %r11
	movl	8(%rbp), %edi
	jne	.L141
	movq	48(%rdx), %r10
	movq	24(%rdx), %rdx
	testl	%edi, %edi
	movq	(%rdx,%rsi,8), %rbx
	movq	(%r10,%rsi,8), %r12
	movq	%rbx, 24(%rsp)
	jle	.L142
	movslq	8(%rsp), %rdi
	xorl	%r10d, %r10d
	movq	%rax, 56(%rsp)
	movq	%r13, %rax
	movq	%r12, 48(%rsp)
	movq	%r14, 72(%rsp)
	movq	%rbp, %r12
	movq	%r15, %r13
	movq	(%rsp), %rbp
	movq	%r9, 64(%rsp)
	movq	%r11, (%rsp)
	movl	%r10d, %r14d
	movq	%rdi, 32(%rsp)
	leaq	(%rbx,%rdi,8), %rdi
	movq	%rax, %r15
	movq	%rdi, 40(%rsp)
	jmp	.L144
	.p2align 4,,10
	.p2align 3
.L143:
	addl	$1, %r14d
	cmpl	%r14d, 8(%r12)
	jle	.L196
.L144:
	movl	%r14d, %eax
	movl	%r14d, %ecx
	sarl	$6, %eax
	andl	$63, %ecx
	cltq
	movq	0(%r13,%rax,8), %rdx
	btq	%rcx, %rdx
	jnc	.L143
	movq	32(%rsp), %rdi
	movl	%r14d, %esi
	leaq	(%rax,%rdi), %rdx
	movq	24(%rsp), %rdi
	movq	0(%rbp,%rdx,8), %rbx
	movq	0(%rbp,%rax,8), %rdx
	shrq	%cl, %rdx
	shrq	%cl, %rbx
	andl	$1, %edx
	andl	$1, %ebx
	call	__lhsbsel@PLT
	movq	40(%rsp), %rdi
	movl	%r14d, %esi
	movq	%rbx, %rdx
	addl	$1, %r14d
	call	__lhsbsel@PLT
	cmpl	%r14d, 8(%r12)
	jg	.L144
	.p2align 4,,10
	.p2align 3
.L196:
	movq	%r15, %rdi
	movq	64(%rsp), %r9
	movq	%r12, %rbp
	movq	96(%rdi), %rdx
	movq	56(%rsp), %rax
	movq	%r13, %r15
	movq	48(%rsp), %r12
	movq	(%rsp), %r11
	movq	%rdi, %r13
	movq	72(%rsp), %r14
	movl	(%rdx,%r9), %ecx
.L142:
	movl	8(%rsp), %edi
	testl	%edi, %edi
	jle	.L136
	leal	-1(%rdi), %edx
	leaq	8(,%rdx,8), %rdi
	xorl	%edx, %edx
	.p2align 4,,10
	.p2align 3
.L147:
	movq	(%rax,%rdx), %rsi
	orq	%rsi, (%r12,%rdx)
	movq	(%r15,%rdx), %rsi
	orq	%rsi, (%r11,%rdx)
	addq	$8, %rdx
	cmpq	%rdx, %rdi
	jne	.L147
	jmp	.L136
	.p2align 4,,10
	.p2align 3
.L197:
	movslq	8(%rsp), %rax
	movq	(%rsp), %rdi
	leaq	(%rsi,%rax,8), %rdx
	call	asl_loc_combine_xprop_accum
	jmp	.L126
	.p2align 4,,10
	.p2align 3
.L199:
	movl	8(%rbp), %r10d
	testl	%r10d, %r10d
	jle	.L137
	movslq	8(%rsp), %rdx
	xorl	%r10d, %r10d
	movq	%r14, 40(%rsp)
	movq	%r13, 48(%rsp)
	movq	%r9, 32(%rsp)
	movq	%rbx, %r13
	movl	%r10d, %r14d
	movq	%r12, %rbx
	leaq	(%r12,%rdx,8), %rdi
	movq	%rax, %r12
	movq	%rdi, 24(%rsp)
	.p2align 4,,10
	.p2align 3
.L139:
	movl	%r14d, %edx
	movl	%r14d, %ecx
	sarl	$6, %edx
	andl	$63, %ecx
	movslq	%edx, %rdx
	movq	0(%r13,%rdx,8), %rsi
	movq	(%r12,%rdx,8), %rdx
	shrq	%cl, %rsi
	shrq	%cl, %rdx
	andl	$1, %esi
	andl	$1, %edx
	cmpl	%edx, %esi
	je	.L138
	movl	$1, %edx
	movl	%r14d, %esi
	movq	%rbx, %rdi
	call	__lhsbsel@PLT
	movq	24(%rsp), %rdi
	movl	$1, %edx
	movl	%r14d, %esi
	call	__lhsbsel@PLT
.L138:
	addl	$1, %r14d
	cmpl	%r14d, 8(%rbp)
	jg	.L139
	movq	%r13, %rbx
	movq	%r12, %rax
	movq	32(%rsp), %r9
	movq	40(%rsp), %r14
	movq	48(%rsp), %r13
	jmp	.L137
	.p2align 4,,10
	.p2align 3
.L198:
	movl	8(%rbp), %eax
	movq	__masktab@GOTPCREL(%rip), %r15
	leal	63(%rax), %r10d
	andl	$63, %eax
	movq	(%r15,%rax,8), %r15
	sarl	$6, %r10d
	movslq	%r10d, %r8
	testl	%r10d, %r10d
	movq	%r15, 24(%rsp)
	leaq	-8(%r12,%r8,8), %r11
	movslq	8(%rsp), %r15
	jle	.L129
	leaq	8(%r12), %rax
	subl	$1, %r10d
	movq	%r12, 40(%rsp)
	movq	%r10, 32(%rsp)
	movq	%rax, 8(%rsp)
	leaq	(%rax,%r10,8), %r10
	movq	%r12, %rax
	.p2align 4,,10
	.p2align 3
.L130:
	movq	$-1, (%rax)
	addq	$8, %rax
	cmpq	%rax, %r10
	jne	.L130
	movq	24(%rsp), %rax
	andq	%rax, (%r11)
	leaq	(%r12,%r15,8), %rax
	movq	32(%rsp), %r11
	movq	8(%rsp), %r10
	addq	%r15, %r11
	leaq	(%r10,%r11,8), %r10
	.p2align 4,,10
	.p2align 3
.L132:
	movq	$-1, (%rax)
	addq	$8, %rax
	cmpq	%rax, %r10
	jne	.L132
	leaq	(%r8,%r15), %rax
	movq	24(%rsp), %r8
	andq	%r8, -8(%r12,%rax,8)
	jmp	.L128
	.p2align 4,,10
	.p2align 3
.L141:
	movq	56(%rdx), %r10
	movq	32(%rdx), %rdx
	testl	%edi, %edi
	movq	(%rdx,%rsi,8), %rbx
	movq	(%r10,%rsi,8), %r12
	movq	%rbx, 24(%rsp)
	jle	.L142
	movslq	8(%rsp), %rdi
	xorl	%r10d, %r10d
	movq	%rax, 56(%rsp)
	movq	%r13, %rax
	movq	%r12, 48(%rsp)
	movq	%r14, 72(%rsp)
	movq	%rbp, %r12
	movq	%r15, %r13
	movq	(%rsp), %rbp
	movq	%r9, 64(%rsp)
	movq	%r11, (%rsp)
	movl	%r10d, %r14d
	movq	%rdi, 32(%rsp)
	leaq	(%rbx,%rdi,8), %rdi
	movq	%rax, %r15
	movq	%rdi, 40(%rsp)
	jmp	.L146
	.p2align 4,,10
	.p2align 3
.L145:
	addl	$1, %r14d
	cmpl	%r14d, 8(%r12)
	jle	.L196
.L146:
	movl	%r14d, %eax
	movl	%r14d, %ecx
	sarl	$6, %eax
	andl	$63, %ecx
	cltq
	movq	0(%r13,%rax,8), %rdx
	btq	%rcx, %rdx
	jnc	.L145
	movq	32(%rsp), %rdi
	movl	%r14d, %esi
	leaq	(%rax,%rdi), %rdx
	movq	24(%rsp), %rdi
	movq	0(%rbp,%rdx,8), %rbx
	movq	0(%rbp,%rax,8), %rdx
	shrq	%cl, %rdx
	shrq	%cl, %rbx
	andl	$1, %edx
	andl	$1, %ebx
	call	__lhsbsel@PLT
	movq	40(%rsp), %rdi
	movq	%rbx, %rdx
	movl	%r14d, %esi
	call	__lhsbsel@PLT
	jmp	.L145
	.p2align 4,,10
	.p2align 3
.L135:
	addq	72(%rax), %rcx
	movq	32(%rax), %rax
	orl	%edx, (%rcx)
	jmp	.L195
	.p2align 4,,10
	.p2align 3
.L192:
	.cfi_def_cfa_offset 8
	.cfi_restore 3
	.cfi_restore 6
	.cfi_restore 12
	.cfi_restore 13
	.cfi_restore 14
	.cfi_restore 15
	rep ret
	.p2align 4,,10
	.p2align 3
.L129:
	.cfi_def_cfa_offset 144
	.cfi_offset 3, -56
	.cfi_offset 6, -48
	.cfi_offset 12, -40
	.cfi_offset 13, -32
	.cfi_offset 14, -24
	.cfi_offset 15, -16
	movq	24(%rsp), %rax
	andq	%rax, (%r11)
	leaq	(%r8,%r15), %rax
	movq	24(%rsp), %r8
	andq	%r8, -8(%r12,%rax,8)
	jmp	.L128
	.cfi_endproc
.LFE252:
	.size	asl_loc_set_restore_xprop_accum_block, .-asl_loc_set_restore_xprop_accum_block
	.p2align 4,,15
	.type	asl_loc_set_restore_xprop_accum_block_selfv, @function
asl_loc_set_restore_xprop_accum_block_selfv:
.LFB253:
	.cfi_startproc
	pushq	%r15
	.cfi_def_cfa_offset 16
	.cfi_offset 15, -16
	pushq	%r14
	.cfi_def_cfa_offset 24
	.cfi_offset 14, -24
	pushq	%r13
	.cfi_def_cfa_offset 32
	.cfi_offset 13, -32
	pushq	%r12
	.cfi_def_cfa_offset 40
	.cfi_offset 12, -40
	pushq	%rbp
	.cfi_def_cfa_offset 48
	.cfi_offset 6, -48
	pushq	%rbx
	.cfi_def_cfa_offset 56
	.cfi_offset 3, -56
	subq	$136, %rsp
	.cfi_def_cfa_offset 192
	movl	4(%rdi), %ebx
	andb	$-33, 8(%rdi)
	movq	%fs:40, %rax
	movq	%rax, 120(%rsp)
	xorl	%eax, %eax
	movl	%esi, 32(%rsp)
	testl	%ebx, %ebx
	jle	.L200
	leaq	112(%rsp), %rax
	movq	%rdi, %r15
	xorl	%r14d, %r14d
	movq	%rax, 56(%rsp)
	leaq	104(%rsp), %rax
	movq	%rax, 64(%rsp)
	movl	%esi, %eax
	andl	$1, %eax
	movb	%al, 39(%rsp)
	.p2align 4,,10
	.p2align 3
.L230:
	leaq	0(,%r14,8), %rax
	movl	(%r15), %r11d
	movq	%rax, 16(%rsp)
	movq	80(%r15), %rax
	movq	(%rax,%r14,8), %rbx
	movl	8(%rbx), %eax
	movq	232(%rbx), %r13
	addl	$63, %eax
	sarl	$6, %eax
	testl	%r11d, %r11d
	movl	%eax, 8(%rsp)
	movq	32(%r15), %rax
	movq	(%rax,%r14,8), %r12
	movq	24(%r15), %rax
	movq	(%rax,%r14,8), %rax
	movq	%rax, (%rsp)
	je	.L202
	movq	%r12, (%rsp)
	movq	%rax, %r12
.L202:
	movzbl	6(%rbx), %eax
	leaq	0(,%r14,4), %rbp
	testb	$4, %al
	je	.L203
	orl	$4, %eax
	movq	32(%rbx), %rdx
	movb	%al, 6(%rbx)
	movq	64(%r15), %rax
	movl	$1, (%rax,%r14,4)
	movq	__idp@GOTPCREL(%rip), %rax
	movq	(%rax), %rax
	leaq	(%rax,%rdx,8), %rsi
	movzbl	1(%rbx), %eax
	testb	$126, %al
	je	.L280
	andl	$124, %eax
	cmpb	$4, %al
	je	.L281
	movq	__xspi@GOTPCREL(%rip), %rax
	movq	__maxxnest@GOTPCREL(%rip), %rcx
	movl	(%rax), %edi
	leal	1(%rdi), %edx
	cmpl	(%rcx), %edx
	movl	%edx, (%rax)
	jge	.L282
.L206:
	movq	__xstk@GOTPCREL(%rip), %rcx
	movslq	%edx, %rdx
	movq	(%rcx), %rcx
	movq	(%rcx,%rdx,8), %rcx
	movl	8(%rbx), %edx
	leal	63(%rdx), %esi
	sarl	$6, %esi
	cmpl	4(%rcx), %esi
	jg	.L283
.L207:
	movq	8(%rcx), %rdi
	movslq	%esi, %rsi
	movl	%edx, (%rcx)
	movq	%rbx, %rdx
	movq	%rax, 40(%rsp)
	movq	%rcx, 24(%rsp)
	leaq	(%rdi,%rsi,8), %rsi
	movq	%rsi, 16(%rcx)
	call	__ld_wire_val_wrds@PLT
	movq	24(%rsp), %rcx
	movq	(%rsp), %rdi
	movq	16(%rcx), %rdx
	movq	8(%rcx), %rsi
	movl	$1, %ecx
	call	asl_loc_combine_xprop_accum
	movq	40(%rsp), %rax
	subl	$1, (%rax)
.L203:
	movl	32(%rsp), %r10d
	testl	%r10d, %r10d
	jne	.L284
.L208:
	movl	8(%rsp), %r12d
	movq	(%rsp), %rsi
	movq	%r13, %rdi
	sall	$4, %r12d
	movslq	%r12d, %r12
	movq	%r12, %rdx
	call	memcpy@PLT
	movq	16(%r15), %rax
	movl	(%rax,%rbp), %r9d
	testl	%r9d, %r9d
	je	.L209
	movq	64(%r15), %rcx
	movq	72(%r15), %rsi
	movl	(%rcx,%rbp), %edi
	movl	(%rsi,%rbp), %edx
	cmpl	%edx, %edi
	je	.L210
	cmpb	$0, 39(%rsp)
	jne	.L285
.L210:
	movq	104(%r15), %rax
	movq	96(%r15), %r9
	addq	%rbp, %r9
	testq	%rax, %rax
	je	.L215
	testb	$32, 8(%rax)
	je	.L215
	movl	(%r15), %r8d
	testl	%r8d, %r8d
	cmove	%edi, %edx
	testl	%edx, %edx
	je	.L215
	movslq	(%r9), %rsi
	movl	(%rax), %r13d
	testl	%r13d, %r13d
	leaq	0(,%rsi,4), %rcx
	jne	.L217
	addq	64(%rax), %rcx
	movq	24(%rax), %rax
	orl	%edx, (%rcx)
.L278:
	movq	(%rax,%rsi,8), %rdi
	movq	(%rsp), %rsi
	movq	%r12, %rdx
	call	memcpy@PLT
	movq	96(%r15), %r9
	movq	64(%r15), %rcx
	movq	72(%r15), %rsi
	addq	%rbp, %r9
	.p2align 4,,10
	.p2align 3
.L215:
	movl	$-1, (%rcx,%rbp)
	movl	$-1, (%rsi,%rbp)
	movl	(%r9), %edx
.L218:
	leal	1(%r14), %eax
	addq	$1, %r14
	cmpl	%eax, 4(%r15)
	movl	%edx, 240(%rbx)
	jg	.L230
.L200:
	movq	120(%rsp), %rax
	xorq	%fs:40, %rax
	jne	.L286
	addq	$136, %rsp
	.cfi_remember_state
	.cfi_def_cfa_offset 56
	popq	%rbx
	.cfi_def_cfa_offset 48
	popq	%rbp
	.cfi_def_cfa_offset 40
	popq	%r12
	.cfi_def_cfa_offset 32
	popq	%r13
	.cfi_def_cfa_offset 24
	popq	%r14
	.cfi_def_cfa_offset 16
	popq	%r15
	.cfi_def_cfa_offset 8
	ret
	.p2align 4,,10
	.p2align 3
.L209:
	.cfi_restore_state
	movq	48(%r15), %rax
	leaq	0(,%r14,8), %rdi
	movl	32(%rsp), %r11d
	movq	(%rax,%rdi), %r12
	movq	56(%r15), %rax
	testl	%r11d, %r11d
	movq	(%rax,%rdi), %r9
	jne	.L287
.L219:
	movq	104(%r15), %rcx
	movq	96(%r15), %rax
	testq	%rcx, %rcx
	movl	(%rax,%rbp), %edx
	je	.L218
	testb	$32, 8(%rcx)
	je	.L218
	movl	(%r15), %eax
	movq	16(%rsp), %rdi
	movslq	%edx, %rsi
	movl	(%rcx), %r8d
	testl	%eax, %eax
	movq	40(%r15), %rax
	cmove	%r12, %r9
	testl	%r8d, %r8d
	movq	(%rax,%rdi), %rax
	movq	40(%rcx), %rdi
	movq	(%rdi,%rsi,8), %r13
	movl	8(%rbx), %edi
	jne	.L223
	movq	48(%rcx), %r10
	movq	24(%rcx), %rcx
	testl	%edi, %edi
	movq	(%rcx,%rsi,8), %rcx
	movq	(%r10,%rsi,8), %r8
	movq	%rcx, 16(%rsp)
	jle	.L224
	movslq	8(%rsp), %rdi
	xorl	%r12d, %r12d
	movq	%r13, 80(%rsp)
	movq	%rbp, 88(%rsp)
	movl	%r12d, %r13d
	movq	%rbx, %rbp
	movq	%r8, 48(%rsp)
	movq	%r9, 72(%rsp)
	movq	%rax, %r12
	movq	(%rsp), %rbx
	movq	%rdi, 24(%rsp)
	leaq	(%rcx,%rdi,8), %rdi
	movq	%rdi, 40(%rsp)
	jmp	.L226
	.p2align 4,,10
	.p2align 3
.L225:
	addl	$1, %r13d
	cmpl	%r13d, 8(%rbp)
	jle	.L279
.L226:
	movl	%r13d, %esi
	movl	%r13d, %ecx
	sarl	$6, %esi
	andl	$63, %ecx
	movslq	%esi, %rsi
	movq	(%r12,%rsi,8), %rdx
	btq	%rcx, %rdx
	jnc	.L225
	movq	(%rbx,%rsi,8), %rdx
	addq	24(%rsp), %rsi
	movq	16(%rsp), %rdi
	shrq	%cl, %rdx
	andl	$1, %edx
	movq	%rdx, 104(%rsp)
	movq	(%rbx,%rsi,8), %rsi
	shrq	%cl, %rsi
	andl	$1, %esi
	movq	%rsi, 112(%rsp)
	movl	%r13d, %esi
	call	__lhsbsel@PLT
	movq	112(%rsp), %rdx
	movq	40(%rsp), %rdi
	movl	%r13d, %esi
	addl	$1, %r13d
	call	__lhsbsel@PLT
	cmpl	%r13d, 8(%rbp)
	jg	.L226
	.p2align 4,,10
	.p2align 3
.L279:
	movq	%rbp, %rbx
	movq	96(%r15), %rdx
	movq	88(%rsp), %rbp
	movq	48(%rsp), %r8
	movq	72(%rsp), %r9
	movq	%r12, %rax
	movq	80(%rsp), %r13
	movl	(%rdx,%rbp), %edx
.L224:
	movl	8(%rsp), %edi
	testl	%edi, %edi
	jle	.L218
	leal	-1(%rdi), %ecx
	leaq	8(,%rcx,8), %rdi
	xorl	%ecx, %ecx
	.p2align 4,,10
	.p2align 3
.L229:
	movq	(%r9,%rcx), %rsi
	orq	%rsi, (%r8,%rcx)
	movq	(%rax,%rcx), %rsi
	orq	%rsi, 0(%r13,%rcx)
	addq	$8, %rcx
	cmpq	%rcx, %rdi
	jne	.L229
	jmp	.L218
	.p2align 4,,10
	.p2align 3
.L284:
	movslq	8(%rsp), %rax
	movl	8(%rbx), %ecx
	movq	%r12, %rsi
	movq	(%rsp), %rdi
	leaq	(%r12,%rax,8), %rdx
	call	asl_loc_combine_xprop_accum
	jmp	.L208
	.p2align 4,,10
	.p2align 3
.L287:
	movl	8(%rbx), %r10d
	testl	%r10d, %r10d
	jle	.L219
	movslq	8(%rsp), %rax
	movq	%rbp, 40(%rsp)
	movq	%rbx, %rbp
	movq	%r14, 48(%rsp)
	movq	%r13, %rbx
	movq	%r12, %r14
	leaq	0(%r13,%rax,8), %rax
	movq	%r9, %r13
	movq	%rax, 24(%rsp)
	xorl	%eax, %eax
	movl	%eax, %r12d
	.p2align 4,,10
	.p2align 3
.L221:
	movl	%r12d, %edx
	movl	%r12d, %ecx
	sarl	$6, %edx
	andl	$63, %ecx
	movslq	%edx, %rdx
	movq	(%r14,%rdx,8), %rsi
	movq	0(%r13,%rdx,8), %rdx
	shrq	%cl, %rsi
	shrq	%cl, %rdx
	andl	$1, %esi
	andl	$1, %edx
	cmpl	%edx, %esi
	je	.L220
	movl	$1, %edx
	movl	%r12d, %esi
	movq	%rbx, %rdi
	call	__lhsbsel@PLT
	movq	24(%rsp), %rdi
	movl	$1, %edx
	movl	%r12d, %esi
	call	__lhsbsel@PLT
.L220:
	addl	$1, %r12d
	cmpl	%r12d, 8(%rbp)
	jg	.L221
	movq	%rbp, %rbx
	movq	%r14, %r12
	movq	%r13, %r9
	movq	40(%rsp), %rbp
	movq	48(%rsp), %r14
	jmp	.L219
	.p2align 4,,10
	.p2align 3
.L280:
	movslq	8(%rsp), %rax
	movl	8(%rbx), %ecx
	movq	(%rsp), %rdi
	leaq	(%rsi,%rax,8), %rdx
	call	asl_loc_combine_xprop_accum
	jmp	.L203
	.p2align 4,,10
	.p2align 3
.L285:
	movl	8(%rbx), %eax
	movq	__masktab@GOTPCREL(%rip), %r10
	leal	63(%rax), %r9d
	andl	$63, %eax
	movq	(%r10,%rax,8), %r8
	sarl	$6, %r9d
	movslq	%r9d, %r11
	testl	%r9d, %r9d
	leaq	-8(%r13,%r11,8), %r10
	movq	%r11, 16(%rsp)
	movslq	8(%rsp), %r11
	movq	%r10, 24(%rsp)
	jle	.L211
	leal	-1(%r9), %r10d
	leaq	8(%r13), %r9
	movq	%r13, %rax
	movq	%r9, 8(%rsp)
	leaq	(%r9,%r10,8), %r9
	.p2align 4,,10
	.p2align 3
.L212:
	movq	$-1, (%rax)
	addq	$8, %rax
	cmpq	%rax, %r9
	jne	.L212
	movq	24(%rsp), %rax
	movq	8(%rsp), %r9
	addq	%r11, %r10
	andq	%r8, (%rax)
	leaq	(%r9,%r10,8), %r9
	leaq	0(%r13,%r11,8), %rax
	.p2align 4,,10
	.p2align 3
.L214:
	movq	$-1, (%rax)
	addq	$8, %rax
	cmpq	%rax, %r9
	jne	.L214
	movq	16(%rsp), %rax
	addq	%r11, %rax
	andq	%r8, -8(%r13,%rax,8)
	jmp	.L210
	.p2align 4,,10
	.p2align 3
.L281:
	movq	(%rsi), %rax
	movq	(%rsp), %rdi
	movl	$1, %ecx
	movq	64(%rsp), %rsi
	movq	%rax, %rdx
	shrq	%rax
	andl	$1, %edx
	andl	$1, %eax
	movq	%rdx, 104(%rsp)
	movq	56(%rsp), %rdx
	movq	%rax, 112(%rsp)
	call	asl_loc_combine_xprop_accum
	jmp	.L203
	.p2align 4,,10
	.p2align 3
.L223:
	movq	56(%rcx), %r10
	movq	32(%rcx), %rcx
	testl	%edi, %edi
	movq	(%rcx,%rsi,8), %rcx
	movq	(%r10,%rsi,8), %r8
	movq	%rcx, 16(%rsp)
	jle	.L224
	movslq	8(%rsp), %rdi
	xorl	%r12d, %r12d
	movq	%r13, 80(%rsp)
	movq	%rbp, 88(%rsp)
	movl	%r12d, %r13d
	movq	%rbx, %rbp
	movq	%r8, 48(%rsp)
	movq	%r9, 72(%rsp)
	movq	%rax, %r12
	movq	(%rsp), %rbx
	movq	%rdi, 24(%rsp)
	leaq	(%rcx,%rdi,8), %rdi
	movq	%rdi, 40(%rsp)
	jmp	.L228
	.p2align 4,,10
	.p2align 3
.L227:
	addl	$1, %r13d
	cmpl	%r13d, 8(%rbp)
	jle	.L279
.L228:
	movl	%r13d, %esi
	movl	%r13d, %ecx
	sarl	$6, %esi
	andl	$63, %ecx
	movslq	%esi, %rsi
	movq	(%r12,%rsi,8), %rdx
	btq	%rcx, %rdx
	jnc	.L227
	movq	(%rbx,%rsi,8), %rdx
	addq	24(%rsp), %rsi
	movq	16(%rsp), %rdi
	shrq	%cl, %rdx
	andl	$1, %edx
	movq	%rdx, 104(%rsp)
	movq	(%rbx,%rsi,8), %rsi
	shrq	%cl, %rsi
	andl	$1, %esi
	movq	%rsi, 112(%rsp)
	movl	%r13d, %esi
	call	__lhsbsel@PLT
	movq	112(%rsp), %rdx
	movq	40(%rsp), %rdi
	movl	%r13d, %esi
	call	__lhsbsel@PLT
	jmp	.L227
	.p2align 4,,10
	.p2align 3
.L283:
	movq	%rcx, %rdi
	movq	%rax, 40(%rsp)
	movq	%rcx, 24(%rsp)
	call	__chg_xstk_width@PLT
	movl	8(%rbx), %edx
	movq	40(%rsp), %rax
	movq	24(%rsp), %rcx
	leal	63(%rdx), %esi
	sarl	$6, %esi
	jmp	.L207
	.p2align 4,,10
	.p2align 3
.L282:
	movq	%rax, 24(%rsp)
	call	__grow_xstk@PLT
	movq	24(%rsp), %rax
	movl	(%rax), %edx
	jmp	.L206
	.p2align 4,,10
	.p2align 3
.L217:
	addq	72(%rax), %rcx
	movq	32(%rax), %rax
	orl	%edx, (%rcx)
	jmp	.L278
	.p2align 4,,10
	.p2align 3
.L211:
	movq	24(%rsp), %rax
	andq	%r8, (%rax)
	movq	16(%rsp), %rax
	addq	%r11, %rax
	andq	%r8, -8(%r13,%rax,8)
	jmp	.L210
.L286:
	call	__stack_chk_fail@PLT
	.cfi_endproc
.LFE253:
	.size	asl_loc_set_restore_xprop_accum_block_selfv, .-asl_loc_set_restore_xprop_accum_block_selfv
	.p2align 4,,15
	.type	linkout_cur_time, @function
linkout_cur_time:
.LFB338:
	.cfi_startproc
	movq	__cur_te_endp@GOTPCREL(%rip), %rcx
	movq	$0, 16(%rdi)
	movq	(%rcx), %rdx
	testq	%rdx, %rdx
	je	.L302
	movq	80(%rdi), %rax
	testq	%rax, %rax
	je	.L303
	movq	72(%rdi), %rsi
	testq	%rsi, %rsi
	je	.L304
	movq	%rsi, 72(%rax)
	movq	72(%rdi), %rsi
	cmpq	%rdi, %rdx
	movq	%rax, 80(%rsi)
	je	.L305
.L288:
	rep ret
	.p2align 4,,10
	.p2align 3
.L303:
	cmpq	%rdi, %rdx
	je	.L306
	movq	72(%rdi), %rax
	testq	%rax, %rax
	je	.L288
	movq	$0, 80(%rax)
	ret
	.p2align 4,,10
	.p2align 3
.L304:
	movq	%rax, (%rcx)
	movq	$0, 72(%rax)
	ret
	.p2align 4,,10
	.p2align 3
.L305:
	movq	80(%rdx), %rax
	movq	%rax, (%rcx)
	ret
	.p2align 4,,10
	.p2align 3
.L306:
	movq	$0, (%rcx)
	ret
	.p2align 4,,10
	.p2align 3
.L302:
	movq	__p0_te_hdrp@GOTPCREL(%rip), %rcx
	cmpq	(%rcx), %rdi
	je	.L307
.L290:
	movq	80(%rdi), %rax
	movq	72(%rdi), %rdx
	testq	%rax, %rax
	je	.L308
	testq	%rdx, %rdx
	je	.L309
	movq	%rdx, 72(%rax)
	movq	72(%rdi), %rdx
	movq	%rax, 80(%rdx)
	movq	__p0_te_endp@GOTPCREL(%rip), %rax
	cmpq	(%rax), %rdi
	jne	.L288
	movq	80(%rdi), %rdx
	movq	%rdx, (%rax)
	ret
	.p2align 4,,10
	.p2align 3
.L307:
	movq	__p0_te_endp@GOTPCREL(%rip), %rax
	cmpq	(%rax), %rdi
	jne	.L290
	movq	$0, (%rax)
	movq	$0, (%rcx)
	ret
	.p2align 4,,10
	.p2align 3
.L308:
	testq	%rdx, %rdx
	movq	%rdx, (%rcx)
	je	.L288
	movq	$0, 80(%rdx)
	ret
	.p2align 4,,10
	.p2align 3
.L309:
	movq	__p0_te_endp@GOTPCREL(%rip), %rdx
	movq	%rax, (%rdx)
	movq	$0, 72(%rax)
	ret
	.cfi_endproc
.LFE338:
	.size	linkout_cur_time, .-linkout_cur_time
	.p2align 4,,15
	.type	linkout_tevp, @function
linkout_tevp:
.LFB337:
	.cfi_startproc
	movq	__simtime@GOTPCREL(%rip), %rax
	movq	(%rax), %rax
	cmpq	%rax, 48(%rdi)
	je	.L318
	pushq	%rbx
	.cfi_def_cfa_offset 16
	.cfi_offset 3, -16
	movq	40(%rdi), %rbx
	movq	$0, 16(%rdi)
	movq	$0, 40(%rdi)
	cmpq	%rdi, 16(%rbx)
	je	.L319
.L312:
	movq	80(%rdi), %rax
	movq	72(%rdi), %rdx
	testq	%rax, %rax
	je	.L320
	testq	%rdx, %rdx
	je	.L321
	movq	%rdx, 72(%rax)
	movq	72(%rdi), %rdx
	movq	%rax, 80(%rdx)
	popq	%rbx
	.cfi_remember_state
	.cfi_def_cfa_offset 8
	ret
	.p2align 4,,10
	.p2align 3
.L319:
	.cfi_restore_state
	cmpq	%rdi, 24(%rbx)
	jne	.L312
	call	asl_loc_get_new_event
	movq	__process_cancel_ev_enterp@GOTPCREL(%rip), %rdx
	movq	(%rdx), %rdx
	movq	%rdx, 24(%rax)
	movq	%rax, 24(%rbx)
	movq	%rax, 16(%rbx)
	popq	%rbx
	.cfi_remember_state
	.cfi_def_cfa_offset 8
	ret
	.p2align 4,,10
	.p2align 3
.L320:
	.cfi_restore_state
	movq	%rdx, 16(%rbx)
	movq	$0, 80(%rdx)
	popq	%rbx
	.cfi_remember_state
	.cfi_def_cfa_offset 8
	ret
	.p2align 4,,10
	.p2align 3
.L321:
	.cfi_restore_state
	movq	%rax, 24(%rbx)
	movq	$0, 72(%rax)
	popq	%rbx
	.cfi_def_cfa_offset 8
	ret
	.p2align 4,,10
	.p2align 3
.L318:
	.cfi_restore 3
	jmp	linkout_cur_time
	.cfi_endproc
.LFE337:
	.size	linkout_tevp, .-linkout_tevp
	.section	.rodata.str1.1,"aMS",@progbits,1
.LC1:
	.string	"v_aslib.c"
	.text
	.p2align 4,,15
	.type	set_trchan_1vtx_nchg_fld.isra.3, @function
set_trchan_1vtx_nchg_fld.isra.3:
.LFB493:
	.cfi_startproc
	movslq	%edx, %rdx
	movq	__chantab@GOTPCREL(%rip), %r9
	leaq	(%rdx,%rdx,4), %rax
	salq	$3, %rax
	addq	(%r9), %rax
	testb	$16, (%rax)
	je	.L335
	rep ret
	.p2align 4,,10
	.p2align 3
.L335:
	pushq	%r13
	.cfi_def_cfa_offset 16
	.cfi_offset 13, -16
	pushq	%r12
	.cfi_def_cfa_offset 24
	.cfi_offset 12, -24
	movq	%rdi, %r13
	pushq	%rbp
	.cfi_def_cfa_offset 32
	.cfi_offset 6, -32
	pushq	%rbx
	.cfi_def_cfa_offset 40
	.cfi_offset 3, -40
	movq	%r8, %r12
	movq	%rcx, %rbp
	movl	%esi, %ebx
	subq	$8, %rsp
	.cfi_def_cfa_offset 48
	call	__needs_netchg_record@PLT
	testl	%eax, %eax
	jne	.L336
	addq	$8, %rsp
	.cfi_remember_state
	.cfi_def_cfa_offset 40
	popq	%rbx
	.cfi_def_cfa_offset 32
	popq	%rbp
	.cfi_def_cfa_offset 24
	popq	%r12
	.cfi_def_cfa_offset 16
	popq	%r13
	.cfi_def_cfa_offset 8
	ret
	.p2align 4,,10
	.p2align 3
.L336:
	.cfi_restore_state
	movq	0(%rbp), %rbp
	movl	%ebx, %edx
	movl	%ebx, %esi
	movq	%r13, %rdi
	call	__find_nchg_range@PLT
	cmpq	16(%rbp), %r13
	movq	%rax, %rbx
	je	.L326
	leaq	.LC1(%rip), %rdi
	movl	$1213, %esi
	call	__misc_terr@PLT
.L326:
	testq	%rbx, %rbx
	je	.L337
.L327:
	movq	16(%rbx), %rax
	movq	(%r12,%rax,8), %rax
	movq	%rax, 8(%rbp)
	addq	$8, %rsp
	.cfi_remember_state
	.cfi_def_cfa_offset 40
	popq	%rbx
	.cfi_def_cfa_offset 32
	popq	%rbp
	.cfi_def_cfa_offset 24
	popq	%r12
	.cfi_def_cfa_offset 16
	popq	%r13
	.cfi_def_cfa_offset 8
	ret
	.p2align 4,,10
	.p2align 3
.L337:
	.cfi_restore_state
	leaq	.LC1(%rip), %rdi
	movl	$1214, %esi
	call	__misc_terr@PLT
	jmp	.L327
	.cfi_endproc
.LFE493:
	.size	set_trchan_1vtx_nchg_fld.isra.3, .-set_trchan_1vtx_nchg_fld.isra.3
	.p2align 4,,15
	.type	asl_loc_get_impth_del.isra.5, @function
asl_loc_get_impth_del.isra.5:
.LFB495:
	.cfi_startproc
	movq	__idp@GOTPCREL(%rip), %rax
	pushq	%r14
	.cfi_def_cfa_offset 16
	.cfi_offset 14, -16
	pushq	%r13
	.cfi_def_cfa_offset 24
	.cfi_offset 13, -24
	pushq	%r12
	.cfi_def_cfa_offset 32
	.cfi_offset 12, -32
	movq	%rdi, %r13
	pushq	%rbp
	.cfi_def_cfa_offset 40
	.cfi_offset 6, -40
	pushq	%rbx
	.cfi_def_cfa_offset 48
	.cfi_offset 3, -48
	movq	(%rax), %rax
	movslq	(%rax), %rax
	movq	(%rsi,%rax,8), %rbx
	movzbl	(%rbx), %esi
	movq	8(%rbx), %rdi
	movq	32(%rbx), %r12
	call	__get_del@PLT
	movq	40(%rbx), %rbx
	movq	__pdmindel@GOTPCREL(%rip), %r14
	testq	%rbx, %rbx
	movq	%rax, (%r14)
	je	.L346
	.p2align 4,,10
	.p2align 3
.L339:
	movq	32(%rbx), %rbp
	cmpq	%r12, %rbp
	jb	.L341
	movzbl	(%rbx), %esi
	movq	8(%rbx), %rdi
	call	__get_del@PLT
	cmpq	%r12, %rbp
	je	.L347
.L342:
	movq	%rax, (%r14)
	movq	%rbp, %r12
.L341:
	movq	40(%rbx), %rbx
	testq	%rbx, %rbx
	jne	.L339
	addq	(%r14), %r12
	popq	%rbx
	.cfi_remember_state
	.cfi_def_cfa_offset 40
	popq	%rbp
	.cfi_def_cfa_offset 32
	movq	%r12, 0(%r13)
	popq	%r12
	.cfi_def_cfa_offset 24
	popq	%r13
	.cfi_def_cfa_offset 16
	popq	%r14
	.cfi_def_cfa_offset 8
	ret
	.p2align 4,,10
	.p2align 3
.L347:
	.cfi_restore_state
	cmpq	(%r14), %rax
	jbe	.L342
	jmp	.L341
	.p2align 4,,10
	.p2align 3
.L346:
	addq	%rax, %r12
	popq	%rbx
	.cfi_def_cfa_offset 40
	movq	%r12, 0(%r13)
	popq	%rbp
	.cfi_def_cfa_offset 32
	popq	%r12
	.cfi_def_cfa_offset 24
	popq	%r13
	.cfi_def_cfa_offset 16
	popq	%r14
	.cfi_def_cfa_offset 8
	ret
	.cfi_endproc
.LFE495:
	.size	asl_loc_get_impth_del.isra.5, .-asl_loc_get_impth_del.isra.5
	.p2align 4,,15
	.type	asl_loc_get_path_del.isra.7, @function
asl_loc_get_path_del.isra.7:
.LFB497:
	.cfi_startproc
	pushq	%r15
	.cfi_def_cfa_offset 16
	.cfi_offset 15, -16
	pushq	%r14
	.cfi_def_cfa_offset 24
	.cfi_offset 14, -24
	movslq	%esi, %rsi
	pushq	%r13
	.cfi_def_cfa_offset 32
	.cfi_offset 13, -32
	pushq	%r12
	.cfi_def_cfa_offset 40
	.cfi_offset 12, -40
	pushq	%rbp
	.cfi_def_cfa_offset 48
	.cfi_offset 6, -48
	pushq	%rbx
	.cfi_def_cfa_offset 56
	.cfi_offset 3, -56
	subq	$24, %rsp
	.cfi_def_cfa_offset 80
	movq	(%rdi,%rsi,8), %rbx
	testq	%rbx, %rbx
	je	.L358
	movq	__pdmindel@GOTPCREL(%rip), %r12
	movq	%rdx, 8(%rsp)
	xorl	%r13d, %r13d
	xorl	%ebp, %ebp
	movq	$-1, (%r12)
	jmp	.L357
	.p2align 4,,10
	.p2align 3
.L373:
	movq	16(%rax), %rax
	movl	(%rcx), %esi
	testb	$1, (%rax)
	leal	-1(%rsi), %edx
	je	.L370
.L353:
	movq	(%rbx), %rax
	movl	%edx, (%rcx)
.L351:
	movq	__idp@GOTPCREL(%rip), %rdx
	movq	16(%rax), %rcx
	movq	(%rdx), %rdx
	movq	(%rdx,%rcx,8), %r15
	cmpq	%rbp, %r15
	jb	.L354
	movq	(%rax), %r14
	movzwl	(%r14), %esi
	movq	40(%r14), %rdi
	shrw	$4, %si
	andl	$31, %esi
	call	__get_del@PLT
	cmpq	%rbp, %r15
	je	.L371
.L355:
	movq	%rax, (%r12)
	movq	%r15, %rbp
	movq	%rbx, %r13
.L354:
	movq	8(%rbx), %rbx
	testq	%rbx, %rbx
	je	.L372
.L357:
	movq	(%rbx), %rax
	movq	(%rax), %rdx
	movq	56(%rdx), %rdi
	testq	%rdi, %rdi
	je	.L351
	call	__eval2_xpr@PLT
	movq	8(%rax), %rdx
	movq	__xspi@GOTPCREL(%rip), %rcx
	testb	$1, (%rdx)
	je	.L373
	movl	(%rcx), %eax
	leal	-1(%rax), %edx
	jmp	.L353
	.p2align 4,,10
	.p2align 3
.L372:
	movq	(%r12), %rax
	cmpq	$-1, %rax
	je	.L358
	addq	%rax, %rbp
	movq	8(%rsp), %rax
	movq	%rbp, (%rax)
.L348:
	addq	$24, %rsp
	.cfi_remember_state
	.cfi_def_cfa_offset 56
	movq	%r13, %rax
	popq	%rbx
	.cfi_def_cfa_offset 48
	popq	%rbp
	.cfi_def_cfa_offset 40
	popq	%r12
	.cfi_def_cfa_offset 32
	popq	%r13
	.cfi_def_cfa_offset 24
	popq	%r14
	.cfi_def_cfa_offset 16
	popq	%r15
	.cfi_def_cfa_offset 8
	ret
	.p2align 4,,10
	.p2align 3
.L371:
	.cfi_restore_state
	testb	$32, 2(%r14)
	movq	(%r12), %rcx
	je	.L356
	cmpq	%rcx, %rax
	je	.L354
.L356:
	cmpq	%rcx, %rax
	jbe	.L355
	jmp	.L354
	.p2align 4,,10
	.p2align 3
.L370:
	movl	%edx, (%rcx)
	jmp	.L354
	.p2align 4,,10
	.p2align 3
.L358:
	xorl	%r13d, %r13d
	jmp	.L348
	.cfi_endproc
.LFE497:
	.size	asl_loc_get_path_del.isra.7, .-asl_loc_get_path_del.isra.7
	.p2align 4,,15
	.type	asl_loc_get_path_del_scalar.isra.8, @function
asl_loc_get_path_del_scalar.isra.8:
.LFB498:
	.cfi_startproc
	pushq	%r15
	.cfi_def_cfa_offset 16
	.cfi_offset 15, -16
	pushq	%r14
	.cfi_def_cfa_offset 24
	.cfi_offset 14, -24
	pushq	%r13
	.cfi_def_cfa_offset 32
	.cfi_offset 13, -32
	pushq	%r12
	.cfi_def_cfa_offset 40
	.cfi_offset 12, -40
	xorl	%r13d, %r13d
	pushq	%rbp
	.cfi_def_cfa_offset 48
	.cfi_offset 6, -48
	pushq	%rbx
	.cfi_def_cfa_offset 56
	.cfi_offset 3, -56
	xorl	%ebp, %ebp
	subq	$24, %rsp
	.cfi_def_cfa_offset 80
	movq	16(%rdi), %rax
	movq	__pdmindel@GOTPCREL(%rip), %r12
	movq	%rsi, 8(%rsp)
	movq	(%rax), %rbx
	movq	$-1, (%r12)
	testq	%rbx, %rbx
	jne	.L375
	jmp	.L383
	.p2align 4,,10
	.p2align 3
.L402:
	movq	16(%rax), %rax
	movl	(%rcx), %esi
	testb	$1, (%rax)
	leal	-1(%rsi), %edx
	je	.L399
.L379:
	movq	(%rbx), %rax
	movl	%edx, (%rcx)
.L377:
	movq	__idp@GOTPCREL(%rip), %rdx
	movq	16(%rax), %rcx
	movq	(%rdx), %rdx
	movq	(%rdx,%rcx,8), %r15
	cmpq	%rbp, %r15
	jb	.L380
	movq	(%rax), %r14
	movzwl	(%r14), %esi
	movq	40(%r14), %rdi
	shrw	$4, %si
	andl	$31, %esi
	call	__get_del@PLT
	cmpq	%rbp, %r15
	je	.L400
.L381:
	movq	%rax, (%r12)
	movq	%r15, %rbp
	movq	%rbx, %r13
.L380:
	movq	8(%rbx), %rbx
	testq	%rbx, %rbx
	je	.L401
.L375:
	movq	(%rbx), %rax
	movq	(%rax), %rdx
	movq	56(%rdx), %rdi
	testq	%rdi, %rdi
	je	.L377
	call	__eval2_xpr@PLT
	movq	8(%rax), %rdx
	movq	__xspi@GOTPCREL(%rip), %rcx
	testb	$1, (%rdx)
	je	.L402
	movl	(%rcx), %eax
	leal	-1(%rax), %edx
	jmp	.L379
	.p2align 4,,10
	.p2align 3
.L400:
	testb	$32, 2(%r14)
	movq	(%r12), %rcx
	je	.L382
	cmpq	%rcx, %rax
	je	.L380
.L382:
	cmpq	%rcx, %rax
	jbe	.L381
	movq	8(%rbx), %rbx
	testq	%rbx, %rbx
	jne	.L375
	.p2align 4,,10
	.p2align 3
.L401:
	movq	(%r12), %rax
	cmpq	$-1, %rax
	je	.L383
	addq	%rax, %rbp
	movq	8(%rsp), %rax
	movq	%rbp, (%rax)
.L374:
	addq	$24, %rsp
	.cfi_remember_state
	.cfi_def_cfa_offset 56
	movq	%r13, %rax
	popq	%rbx
	.cfi_def_cfa_offset 48
	popq	%rbp
	.cfi_def_cfa_offset 40
	popq	%r12
	.cfi_def_cfa_offset 32
	popq	%r13
	.cfi_def_cfa_offset 24
	popq	%r14
	.cfi_def_cfa_offset 16
	popq	%r15
	.cfi_def_cfa_offset 8
	ret
	.p2align 4,,10
	.p2align 3
.L399:
	.cfi_restore_state
	movl	%edx, (%rcx)
	jmp	.L380
	.p2align 4,,10
	.p2align 3
.L383:
	xorl	%r13d, %r13d
	jmp	.L374
	.cfi_endproc
.LFE498:
	.size	asl_loc_get_path_del_scalar.isra.8, .-asl_loc_get_path_del_scalar.isra.8
	.p2align 4,,15
	.type	asl_loc_ld_vtx_netbit, @function
asl_loc_ld_vtx_netbit:
.LFB402:
	.cfi_startproc
	testb	$4, 2(%rdx)
	je	.L411
	pushq	%r15
	.cfi_def_cfa_offset 16
	.cfi_offset 15, -16
	pushq	%r14
	.cfi_def_cfa_offset 24
	.cfi_offset 14, -24
	movq	%rdx, %r15
	pushq	%r13
	.cfi_def_cfa_offset 32
	.cfi_offset 13, -32
	pushq	%r12
	.cfi_def_cfa_offset 40
	.cfi_offset 12, -40
	movq	%rsi, %r12
	pushq	%rbp
	.cfi_def_cfa_offset 48
	.cfi_offset 6, -48
	pushq	%rbx
	.cfi_def_cfa_offset 56
	.cfi_offset 3, -56
	movq	%rdi, %rbp
	movl	%ecx, %ebx
	subq	$8, %rsp
	.cfi_def_cfa_offset 64
	movq	__xspi@GOTPCREL(%rip), %r14
	movq	__maxxnest@GOTPCREL(%rip), %rdx
	movl	(%r14), %eax
	addl	$1, %eax
	cmpl	(%rdx), %eax
	movl	%eax, (%r14)
	jge	.L412
.L406:
	movq	__xstk@GOTPCREL(%rip), %rdx
	movl	8(%r15), %ecx
	cltq
	movq	(%rdx), %rdx
	leal	63(%rcx), %esi
	sarl	$6, %esi
	movq	(%rdx,%rax,8), %r13
	cmpl	4(%r13), %esi
	jg	.L413
.L407:
	movq	88(%r15), %rax
	movq	8(%r13), %rdi
	movslq	%esi, %rsi
	movl	%ecx, 0(%r13)
	movq	(%rax), %rdx
	leaq	(%rdi,%rsi,8), %rsi
	movq	%rsi, 16(%r13)
	call	__ld_perinst_val@PLT
	movq	8(%r13), %rax
	movl	%ebx, %edx
	andl	$63, %ebx
	sarl	$6, %edx
	movl	%ebx, %ecx
	movslq	%edx, %rdx
	movq	(%rax,%rdx,8), %rax
	shrq	%cl, %rax
	andl	$1, %eax
	movq	%rax, 0(%rbp)
	movq	16(%r13), %rax
	movq	(%rax,%rdx,8), %rax
	shrq	%cl, %rax
	andl	$1, %eax
	movq	%rax, (%r12)
	subl	$1, (%r14)
	addq	$8, %rsp
	.cfi_def_cfa_offset 56
	popq	%rbx
	.cfi_def_cfa_offset 48
	popq	%rbp
	.cfi_def_cfa_offset 40
	popq	%r12
	.cfi_def_cfa_offset 32
	popq	%r13
	.cfi_def_cfa_offset 24
	popq	%r14
	.cfi_def_cfa_offset 16
	popq	%r15
	.cfi_def_cfa_offset 8
	ret
	.p2align 4,,10
	.p2align 3
.L411:
	.cfi_restore 3
	.cfi_restore 6
	.cfi_restore 12
	.cfi_restore 13
	.cfi_restore 14
	.cfi_restore 15
	movq	__idp@GOTPCREL(%rip), %rax
	movq	88(%rdx), %rdx
	movq	(%rax), %rax
	movq	(%rdx), %rdx
	movslq	(%rax), %rax
	movzbl	(%rdx,%rax), %eax
	movq	%rax, (%rdi)
	shrq	%rax
	andl	$1, %eax
	movq	%rax, (%rsi)
	andq	$1, (%rdi)
	ret
	.p2align 4,,10
	.p2align 3
.L413:
	.cfi_def_cfa_offset 64
	.cfi_offset 3, -56
	.cfi_offset 6, -48
	.cfi_offset 12, -40
	.cfi_offset 13, -32
	.cfi_offset 14, -24
	.cfi_offset 15, -16
	movq	%r13, %rdi
	call	__chg_xstk_width@PLT
	movl	8(%r15), %ecx
	leal	63(%rcx), %esi
	sarl	$6, %esi
	jmp	.L407
	.p2align 4,,10
	.p2align 3
.L412:
	call	__grow_xstk@PLT
	movl	(%r14), %eax
	jmp	.L406
	.cfi_endproc
.LFE402:
	.size	asl_loc_ld_vtx_netbit, .-asl_loc_ld_vtx_netbit
	.p2align 4,,15
	.type	asl_loc_eval_combine_bid_chan.isra.11, @function
asl_loc_eval_combine_bid_chan.isra.11:
.LFB501:
	.cfi_startproc
	pushq	%r15
	.cfi_def_cfa_offset 16
	.cfi_offset 15, -16
	pushq	%r14
	.cfi_def_cfa_offset 24
	.cfi_offset 14, -24
	pushq	%r13
	.cfi_def_cfa_offset 32
	.cfi_offset 13, -32
	pushq	%r12
	.cfi_def_cfa_offset 40
	.cfi_offset 12, -40
	pushq	%rbp
	.cfi_def_cfa_offset 48
	.cfi_offset 6, -48
	pushq	%rbx
	.cfi_def_cfa_offset 56
	.cfi_offset 3, -56
	subq	$72, %rsp
	.cfi_def_cfa_offset 128
	movq	__acum_b@GOTPCREL(%rip), %rbp
	movq	__idp@GOTPCREL(%rip), %r12
	movq	%fs:40, %rax
	movq	%rax, 56(%rsp)
	xorl	%eax, %eax
	movq	__acum_a@GOTPCREL(%rip), %rax
	movq	$1, 0(%rbp)
	movq	$0, (%rax)
	cmpq	$0, (%rsi)
	movq	(%r12), %rax
	movq	%rax, 24(%rsp)
	je	.L423
	leaq	48(%rsp), %rax
	movq	%rdi, %r13
	movq	%rsi, %r14
	movl	$1, %ebx
	movq	%rax, 8(%rsp)
	leaq	40(%rsp), %rax
	movq	%rax, 16(%rsp)
	jmp	.L421
	.p2align 4,,10
	.p2align 3
.L437:
	cmpl	$-1, %ecx
	jne	.L418
	movq	32(%r15), %rdx
	movq	(%rsi,%rdx,8), %rdx
	movq	%rdx, %rcx
	andl	$1, %edx
	shrq	%rcx
	movq	%rdx, 40(%rsp)
	andl	$1, %ecx
	movq	%rcx, 48(%rsp)
	.p2align 4,,10
	.p2align 3
.L419:
	movzbl	(%r15), %r8d
	movq	__acum_a@GOTPCREL(%rip), %rdi
	movq	%rbp, %rsi
	andl	$31, %r8d
	call	__eval_1w_nonstren@PLT
	testb	$1, 3(%r15)
	je	.L420
	movq	$0, 0(%rbp)
.L420:
	addq	$24, %r13
	cmpq	%rbx, (%r14)
	leaq	1(%rbx), %rax
	jbe	.L436
	movq	%rax, %rbx
.L421:
	movl	8(%r13), %ecx
	movq	0(%r13), %r15
	movl	$0, %edi
	movq	16(%r13), %rax
	cmpl	$-1, %ecx
	cmovne	%ecx, %edi
	testb	$32, 4(%r15)
	movq	8(%rax), %rsi
	movq	%rsi, (%r12)
	je	.L417
	movl	8(%r15), %edx
	movq	120(%r15), %rax
	imull	(%rsi), %edx
	addl	%edi, %edx
	movslq	%edx, %rdx
	leaq	(%rdx,%rdx,4), %rdx
	leaq	(%rax,%rdx,8), %rdx
	testb	$1, (%rdx)
	jne	.L437
.L417:
	movq	8(%rsp), %rsi
	movq	16(%rsp), %rdi
	movq	%r15, %rdx
	call	asl_loc_ld_vtx_netbit
	movq	48(%rsp), %rcx
	movq	40(%rsp), %rdx
	jmp	.L419
	.p2align 4,,10
	.p2align 3
.L418:
	movq	8(%rsp), %rsi
	movq	16(%rsp), %rdi
	movq	%r15, %rdx
	call	__ld_bit@PLT
	movq	48(%rsp), %rcx
	movq	40(%rsp), %rdx
	jmp	.L419
	.p2align 4,,10
	.p2align 3
.L436:
	movq	__acum_a@GOTPCREL(%rip), %rax
	movq	(%rax), %rax
.L415:
	movq	24(%rsp), %rbx
	movq	%rbx, (%r12)
	movq	56(%rsp), %rbx
	xorq	%fs:40, %rbx
	jne	.L438
	addq	$72, %rsp
	.cfi_remember_state
	.cfi_def_cfa_offset 56
	popq	%rbx
	.cfi_def_cfa_offset 48
	popq	%rbp
	.cfi_def_cfa_offset 40
	popq	%r12
	.cfi_def_cfa_offset 32
	popq	%r13
	.cfi_def_cfa_offset 24
	popq	%r14
	.cfi_def_cfa_offset 16
	popq	%r15
	.cfi_def_cfa_offset 8
	ret
	.p2align 4,,10
	.p2align 3
.L423:
	.cfi_restore_state
	xorl	%eax, %eax
	jmp	.L415
.L438:
	call	__stack_chk_fail@PLT
	.cfi_endproc
.LFE501:
	.size	asl_loc_eval_combine_bid_chan.isra.11, .-asl_loc_eval_combine_bid_chan.isra.11
	.section	.rodata.str1.8
	.align 8
.LC2:
	.string	"error in conversion of real %g to 64 bit time - set to %s"
	.align 8
.LC3:
	.string	"delay expression #(%s) evaluates to x/z changed to #0"
	.text
	.p2align 4,,15
	.type	asl_loc_delx_to_deltim, @function
asl_loc_delx_to_deltim:
.LFB438:
	.cfi_startproc
	pushq	%rbx
	.cfi_def_cfa_offset 16
	.cfi_offset 3, -16
	subq	$32, %rsp
	.cfi_def_cfa_offset 48
	movq	%fs:40, %rax
	movq	%rax, 24(%rsp)
	xorl	%eax, %eax
	movq	__idp@GOTPCREL(%rip), %rax
	testb	$8, 2(%rdi)
	movq	(%rax), %rax
	movq	8(%rax), %rdx
	jne	.L448
	movq	16(%rsi), %rax
	cmpq	$0, (%rax)
	jne	.L449
	cmpl	$64, (%rsi)
	movq	8(%rsi), %rcx
	movq	(%rcx), %rax
	jle	.L445
	movq	8(%rcx), %rcx
	salq	$32, %rcx
	orq	%rcx, %rax
.L445:
	testb	$2, 3(%rdx)
	jne	.L439
	movzbl	2(%rdx), %edx
	movq	__des_timeprec@GOTPCREL(%rip), %rcx
	movq	(%rcx), %rcx
	shrb	%dl
	andl	$15, %edx
	subq	%rdx, %rcx
	movq	%rcx, %rdx
	movq	__itoticks_tab@GOTPCREL(%rip), %rcx
	imulq	(%rcx,%rdx,8), %rax
.L439:
	movq	24(%rsp), %rbx
	xorq	%fs:40, %rbx
	jne	.L450
	addq	$32, %rsp
	.cfi_remember_state
	.cfi_def_cfa_offset 16
	popq	%rbx
	.cfi_def_cfa_offset 8
	ret
	.p2align 4,,10
	.p2align 3
.L449:
	.cfi_restore_state
	movq	__xs@GOTPCREL(%rip), %rax
	movq	%rdi, %rsi
	movq	(%rax), %rdi
	call	__msgexpr_tostr@PLT
	leaq	.LC3(%rip), %rsi
	movq	%rax, %rdx
	movl	$565, %edi
	xorl	%eax, %eax
	call	__sgfwarn@PLT
	xorl	%eax, %eax
	jmp	.L439
	.p2align 4,,10
	.p2align 3
.L448:
	testb	$2, 3(%rdx)
	movq	8(%rsi), %rax
	movsd	(%rax), %xmm1
	jne	.L441
	movq	__des_timeprec@GOTPCREL(%rip), %rax
	movzbl	2(%rdx), %edx
	movq	(%rax), %rax
	shrb	%dl
	andl	$15, %edx
	subl	%edx, %eax
	movq	__dbl_toticks_tab@GOTPCREL(%rip), %rdx
	cltq
	mulsd	(%rdx,%rax,8), %xmm1
.L441:
	leaq	16(%rsp), %rbx
	movapd	%xmm1, %xmm0
	movsd	%xmm1, 8(%rsp)
	movq	%rbx, %rdi
	call	__real_to_v64tim@PLT
	testl	%eax, %eax
	je	.L451
	movq	16(%rsp), %rax
	jmp	.L439
	.p2align 4,,10
	.p2align 3
.L451:
	movq	__xs@GOTPCREL(%rip), %rax
	movq	%rbx, %rsi
	movq	(%rax), %rdi
	call	__to_timstr@PLT
	movsd	8(%rsp), %xmm1
	leaq	.LC2(%rip), %rsi
	movq	%rax, %rdx
	movl	$563, %edi
	movl	$1, %eax
	movapd	%xmm1, %xmm0
	call	__sgfwarn@PLT
	movq	16(%rsp), %rax
	jmp	.L439
.L450:
	call	__stack_chk_fail@PLT
	.cfi_endproc
.LFE438:
	.size	asl_loc_delx_to_deltim, .-asl_loc_delx_to_deltim
	.p2align 4,,15
	.type	asl_loc_rtl_dist_uniform.part.1.constprop.30, @function
asl_loc_rtl_dist_uniform.part.1.constprop.30:
.LFB530:
	.cfi_startproc
	movl	(%rdi), %eax
	testl	%eax, %eax
	jne	.L459
	movsd	.LC4(%rip), %xmm0
	movl	$-1844104698, (%rdi)
.L458:
	cvttsd2si	%xmm0, %eax
	ret
	.p2align 4,,10
	.p2align 3
.L459:
	imull	$69069, %eax, %eax
	pxor	%xmm1, %xmm1
	movsd	.LC5(%rip), %xmm0
	movsd	.LC6(%rip), %xmm3
	addl	$1, %eax
	movsd	.LC7(%rip), %xmm2
	movl	%eax, %edx
	movl	%eax, (%rdi)
	shrl	$9, %edx
	orl	$1065353216, %edx
	movl	%edx, -4(%rsp)
	cvtss2sd	-4(%rsp), %xmm1
	mulsd	%xmm1, %xmm0
	addsd	%xmm1, %xmm0
	movsd	.LC8(%rip), %xmm1
	subsd	%xmm3, %xmm0
	mulsd	%xmm2, %xmm0
	subsd	%xmm1, %xmm0
	addsd	%xmm1, %xmm0
	divsd	%xmm2, %xmm0
	mulsd	.LC9(%rip), %xmm0
	subsd	%xmm1, %xmm0
	ucomisd	.LC10(%rip), %xmm0
	jnb	.L458
	subsd	%xmm3, %xmm0
	cvttsd2si	%xmm0, %eax
	ret
	.cfi_endproc
.LFE530:
	.size	asl_loc_rtl_dist_uniform.part.1.constprop.30, .-asl_loc_rtl_dist_uniform.part.1.constprop.30
	.p2align 4,,15
	.type	asl_loc_reschedule_1wev.part.6, @function
asl_loc_reschedule_1wev.part.6:
.LFB496:
	.cfi_startproc
	pushq	%rbp
	.cfi_def_cfa_offset 16
	.cfi_offset 6, -16
	pushq	%rbx
	.cfi_def_cfa_offset 24
	.cfi_offset 3, -24
	movq	%rsi, %rbp
	movq	%rdi, %rbx
	subq	$8, %rsp
	.cfi_def_cfa_offset 32
	call	linkout_tevp
	movq	__cur_tevp@GOTPCREL(%rip), %rax
	movq	%rbp, 48(%rbx)
	movq	$0, 80(%rbx)
	cmpq	(%rax), %rbx
	je	.L461
	movq	$0, 72(%rbx)
.L461:
	movq	%rbp, %rax
	movq	__time_hash@GOTPCREL(%rip), %rdx
	shrq	$32, %rax
	xorq	%rbp, %rax
	imull	$-1640531535, %eax, %eax
	andl	$4095, %eax
	movslq	%eax, %rcx
	movq	(%rdx,%rcx,8), %rsi
	testq	%rsi, %rsi
	je	.L467
	cmpq	8(%rsi), %rbp
	jne	.L464
	movq	24(%rsi), %rax
	movq	%rsi, 40(%rbx)
	testq	%rax, %rax
	je	.L468
	movq	%rbx, 72(%rax)
	movq	%rax, 80(%rbx)
	movq	%rbx, 24(%rsi)
	movq	$1, 16(%rbx)
	addq	$8, %rsp
	.cfi_remember_state
	.cfi_def_cfa_offset 24
	popq	%rbx
	.cfi_def_cfa_offset 16
	popq	%rbp
	.cfi_def_cfa_offset 8
	ret
	.p2align 4,,10
	.p2align 3
.L464:
	.cfi_restore_state
	movq	%rbx, %rdi
	call	asl_loc_conflict_list
	movq	$1, 16(%rbx)
	addq	$8, %rsp
	.cfi_remember_state
	.cfi_def_cfa_offset 24
	popq	%rbx
	.cfi_def_cfa_offset 16
	popq	%rbp
	.cfi_def_cfa_offset 8
	ret
	.p2align 4,,10
	.p2align 3
.L467:
	.cfi_restore_state
	movq	%rbx, %rdi
	movl	%eax, %esi
	call	asl_loc_add_new_heap_time
	movq	%rbx, 24(%rax)
	movq	%rbx, 16(%rax)
	movq	$0, 40(%rax)
	movq	$0, 32(%rax)
	movq	$1, 16(%rbx)
	addq	$8, %rsp
	.cfi_remember_state
	.cfi_def_cfa_offset 24
	popq	%rbx
	.cfi_def_cfa_offset 16
	popq	%rbp
	.cfi_def_cfa_offset 8
	ret
	.p2align 4,,10
	.p2align 3
.L468:
	.cfi_restore_state
	movq	%rbx, 24(%rsi)
	movq	%rbx, 16(%rsi)
	movq	$1, 16(%rbx)
	addq	$8, %rsp
	.cfi_def_cfa_offset 24
	popq	%rbx
	.cfi_def_cfa_offset 16
	popq	%rbp
	.cfi_def_cfa_offset 8
	ret
	.cfi_endproc
.LFE496:
	.size	asl_loc_reschedule_1wev.part.6, .-asl_loc_reschedule_1wev.part.6
	.p2align 4,,15
	.type	asl_loc_schedule_1wev, @function
asl_loc_schedule_1wev:
.LFB412:
	.cfi_startproc
	pushq	%rbp
	.cfi_def_cfa_offset 16
	.cfi_offset 6, -16
	pushq	%rbx
	.cfi_def_cfa_offset 24
	.cfi_offset 3, -24
	movslq	%edi, %rbp
	movq	%rsi, %rbx
	subq	$24, %rsp
	.cfi_def_cfa_offset 48
	testq	%rdx, %rdx
	movq	%rcx, 48(%rsi)
	jne	.L470
	movq	__p0_te_hdrp@GOTPCREL(%rip), %rax
	cmpq	$0, (%rax)
	je	.L478
	movq	__p0_te_endp@GOTPCREL(%rip), %rax
	movq	(%rax), %rdx
	movq	%rsi, (%rax)
	movq	__free_event_pnd0_tevp@GOTPCREL(%rip), %rax
	movq	%rsi, 72(%rdx)
	movq	(%rax), %rax
	movq	%rax, 72(%rsi)
.L472:
	movq	%rbp, 8(%rbx)
	movb	%r8b, 2(%rbx)
	movq	$1, 16(%rbx)
	addq	$24, %rsp
	.cfi_remember_state
	.cfi_def_cfa_offset 24
	popq	%rbx
	.cfi_def_cfa_offset 16
	popq	%rbp
	.cfi_def_cfa_offset 8
	ret
	.p2align 4,,10
	.p2align 3
.L478:
	.cfi_restore_state
	movq	__p0_te_endp@GOTPCREL(%rip), %rdx
	movq	%rsi, (%rax)
	movq	%rsi, (%rdx)
	jmp	.L472
	.p2align 4,,10
	.p2align 3
.L470:
	movq	__cur_tevp@GOTPCREL(%rip), %rax
	movq	$0, 80(%rsi)
	cmpq	(%rax), %rsi
	je	.L473
	movq	$0, 72(%rsi)
.L473:
	movq	%rcx, %rax
	movq	__time_hash@GOTPCREL(%rip), %rdx
	shrq	$32, %rax
	xorq	%rcx, %rax
	imull	$-1640531535, %eax, %eax
	andl	$4095, %eax
	movslq	%eax, %rsi
	movq	(%rdx,%rsi,8), %rsi
	testq	%rsi, %rsi
	je	.L479
	cmpq	8(%rsi), %rcx
	jne	.L475
	movq	24(%rsi), %rax
	movq	%rsi, 40(%rbx)
	testq	%rax, %rax
	je	.L480
	movq	%rbx, 72(%rax)
	movq	%rax, 80(%rbx)
	movq	%rbx, 24(%rsi)
	jmp	.L472
	.p2align 4,,10
	.p2align 3
.L475:
	movq	%rbx, %rdi
	movq	%r8, 8(%rsp)
	call	asl_loc_conflict_list
	movq	8(%rsp), %r8
	jmp	.L472
	.p2align 4,,10
	.p2align 3
.L479:
	movl	%eax, %esi
	movq	%rbx, %rdi
	movq	%r8, 8(%rsp)
	call	asl_loc_add_new_heap_time
	movq	8(%rsp), %r8
	movq	%rbx, 24(%rax)
	movq	%rbx, 16(%rax)
	movq	$0, 40(%rax)
	movq	$0, 32(%rax)
	jmp	.L472
	.p2align 4,,10
	.p2align 3
.L480:
	movq	%rbx, 24(%rsi)
	movq	%rbx, 16(%rsi)
	jmp	.L472
	.cfi_endproc
.LFE412:
	.size	asl_loc_schedule_1wev, .-asl_loc_schedule_1wev
	.section	.rodata.str1.8
	.align 8
.LC11:
	.string	"distributed longer or no path delay"
	.section	.rodata.str1.1
.LC12:
	.string	"pulse"
.LC13:
	.string	"inout unstable"
	.text
	.p2align 4,,15
	.type	asl_loc_schd_1bitpthdrvr, @function
asl_loc_schd_1bitpthdrvr:
.LFB381:
	.cfi_startproc
	pushq	%r15
	.cfi_def_cfa_offset 16
	.cfi_offset 15, -16
	pushq	%r14
	.cfi_def_cfa_offset 24
	.cfi_offset 14, -24
	movl	%esi, %r15d
	pushq	%r13
	.cfi_def_cfa_offset 32
	.cfi_offset 13, -32
	pushq	%r12
	.cfi_def_cfa_offset 40
	.cfi_offset 12, -40
	movq	%rdi, %r13
	pushq	%rbp
	.cfi_def_cfa_offset 48
	.cfi_offset 6, -48
	pushq	%rbx
	.cfi_def_cfa_offset 56
	.cfi_offset 3, -56
	movq	%rdx, %rbp
	subq	$40, %rsp
	.cfi_def_cfa_offset 96
	movq	%fs:40, %rax
	movq	%rax, 24(%rsp)
	xorl	%eax, %eax
	movq	__new_gateval@GOTPCREL(%rip), %rax
	cmpq	$0, 16(%rdx)
	movq	(%rax), %r12
	movq	__old_gateval@GOTPCREL(%rip), %rax
	movq	(%rax), %r14
	jne	.L482
	cmpq	%r14, %r12
	je	.L516
	movzbl	2(%rdi), %ebx
	shrb	$7, %bl
	movzbl	%bl, %ebx
.L511:
	movq	56(%r13), %rax
	leaq	16(%rsp), %rdx
	movl	%r15d, %esi
	movq	%rdx, (%rsp)
	movq	16(%rax), %rdi
	call	asl_loc_get_path_del.isra.7
	testq	%rax, %rax
	movq	%rax, %r11
	je	.L517
	movq	__simtime@GOTPCREL(%rip), %rax
	movq	16(%rsp), %rcx
	cmpq	(%rax), %rcx
	jbe	.L521
	cmpq	$0, 16(%rbp)
	je	.L522
	cmpq	%r14, %r12
	je	.L487
	cmpb	%r12b, 2(%rbp)
	je	.L516
	movq	__warn_cancel_e@GOTPCREL(%rip), %rax
	movl	(%rax), %ecx
	testl	%ecx, %ecx
	je	.L506
	movq	__no_warns@GOTPCREL(%rip), %rax
	movl	(%rax), %edx
	testl	%edx, %edx
	je	.L523
.L506:
	movq	__show_cancel_e@GOTPCREL(%rip), %rax
	movl	(%rax), %eax
	testl	%eax, %eax
	jne	.L520
	movq	16(%rsp), %rsi
	cmpq	48(%rbp), %rsi
	movl	%eax, (%rsp)
	movb	%r12b, 2(%rbp)
	je	.L516
	movq	%rbp, %rdi
	call	asl_loc_reschedule_1wev.part.6
	movl	(%rsp), %eax
	jmp	.L481
	.p2align 4,,10
	.p2align 3
.L482:
	movzbl	2(%rdi), %ebx
	shrb	$7, %bl
	cmpq	%r14, %r12
	movzbl	%bl, %ebx
	jne	.L511
	movq	$0, 16(%rsp)
.L487:
	movq	__warn_cancel_e@GOTPCREL(%rip), %rax
	movl	(%rax), %edi
	testl	%edi, %edi
	jne	.L524
.L499:
	movq	__show_cancel_e@GOTPCREL(%rip), %rax
	movl	(%rax), %eax
	testl	%eax, %eax
	je	.L501
.L520:
	movq	__showe_onevent@GOTPCREL(%rip), %rax
	movl	(%rax), %eax
	testl	%eax, %eax
	je	.L509
	cmpq	$1, %rbx
	sbbl	%eax, %eax
	andl	$40, %eax
	subl	$37, %eax
	movb	%al, 2(%rbp)
.L516:
	xorl	%eax, %eax
.L481:
	movq	24(%rsp), %rcx
	xorq	%fs:40, %rcx
	jne	.L525
	addq	$40, %rsp
	.cfi_remember_state
	.cfi_def_cfa_offset 56
	popq	%rbx
	.cfi_def_cfa_offset 48
	popq	%rbp
	.cfi_def_cfa_offset 40
	popq	%r12
	.cfi_def_cfa_offset 32
	popq	%r13
	.cfi_def_cfa_offset 24
	popq	%r14
	.cfi_def_cfa_offset 16
	popq	%r15
	.cfi_def_cfa_offset 8
	ret
	.p2align 4,,10
	.p2align 3
.L509:
	.cfi_restore_state
	movq	%rbp, %rdi
	call	linkout_tevp
.L494:
	testq	%rbx, %rbx
	movq	__new_gateval@GOTPCREL(%rip), %rax
	je	.L495
	movq	$219, (%rax)
	.p2align 4,,10
	.p2align 3
.L517:
	movl	$1, %eax
	jmp	.L481
	.p2align 4,,10
	.p2align 3
.L521:
	movq	__no_informs@GOTPCREL(%rip), %rax
	movl	(%rax), %r12d
	testl	%r12d, %r12d
	je	.L526
.L489:
	cmpq	$0, 16(%rbp)
	je	.L517
	movq	__warn_cancel_e@GOTPCREL(%rip), %rax
	movl	(%rax), %r10d
	testl	%r10d, %r10d
	je	.L492
	movq	__no_warns@GOTPCREL(%rip), %rax
	movl	(%rax), %r9d
	testl	%r9d, %r9d
	jne	.L492
	movl	$592, %edi
	movq	%r11, (%rsp)
	call	__em_suppr@PLT
	testl	%eax, %eax
	movq	(%rsp), %r11
	jne	.L492
	movq	__simtime@GOTPCREL(%rip), %rdx
	leaq	48(%rbp), %rcx
	leaq	.LC11(%rip), %r8
	movq	%rbx, %r9
	movq	%rbp, %rsi
	movq	%r11, %rdi
	call	__emit_path_pulsewarn@PLT
	.p2align 4,,10
	.p2align 3
.L492:
	movq	%rbp, %rdi
	call	linkout_tevp
	movq	__show_cancel_e@GOTPCREL(%rip), %rax
	movl	(%rax), %r8d
	testl	%r8d, %r8d
	jne	.L494
	jmp	.L517
	.p2align 4,,10
	.p2align 3
.L524:
	movq	__no_warns@GOTPCREL(%rip), %rax
	movl	(%rax), %esi
	testl	%esi, %esi
	jne	.L499
	movl	$592, %edi
	call	__em_suppr@PLT
	testl	%eax, %eax
	jne	.L499
	leaq	48(%rbp), %rcx
	leaq	.LC12(%rip), %r8
	movq	%rbx, %r9
	movq	%rbp, %rdx
	movl	%r15d, %esi
	movq	%r13, %rdi
	call	__emit_path_samewarn@PLT
	jmp	.L499
	.p2align 4,,10
	.p2align 3
.L522:
	movq	__pdmindel@GOTPCREL(%rip), %rax
	movq	%r12, %r8
	movq	%rbp, %rsi
	movl	%r15d, %edi
	movq	(%rax), %rdx
	call	asl_loc_schedule_1wev
	xorl	%eax, %eax
	jmp	.L481
	.p2align 4,,10
	.p2align 3
.L495:
	movq	$3, (%rax)
	movl	$1, %eax
	jmp	.L481
	.p2align 4,,10
	.p2align 3
.L526:
	movq	__pdmindel@GOTPCREL(%rip), %rdx
	movq	%r11, %rsi
	movq	%r13, %rdi
	movq	%r11, (%rsp)
	call	__emit_path_distinform@PLT
	movq	(%rsp), %r11
	jmp	.L489
	.p2align 4,,10
	.p2align 3
.L501:
	movq	%rbp, %rdi
	movl	%eax, (%rsp)
	call	linkout_tevp
	movl	(%rsp), %eax
	jmp	.L481
	.p2align 4,,10
	.p2align 3
.L523:
	movl	$592, %edi
	movq	%r11, 8(%rsp)
	call	__em_suppr@PLT
	testl	%eax, %eax
	movq	8(%rsp), %r11
	jne	.L506
	movq	(%rsp), %rcx
	leaq	48(%rbp), %rdx
	leaq	.LC13(%rip), %r8
	movq	%rbx, %r9
	movq	%rbp, %rsi
	movq	%r11, %rdi
	call	__emit_path_pulsewarn@PLT
	jmp	.L506
.L525:
	call	__stack_chk_fail@PLT
	.cfi_endproc
.LFE381:
	.size	asl_loc_schd_1bitpthdrvr, .-asl_loc_schd_1bitpthdrvr
	.p2align 4,,15
	.globl	__alnk_init_mdp
	.type	__alnk_init_mdp, @function
__alnk_init_mdp:
.LFB69:
	.cfi_startproc
	movq	__dsgn_mod_ndx@GOTPCREL(%rip), %rax
	movslq	%edi, %rdi
	movq	(%rax), %rax
	movq	(%rax,%rdi,8), %rdx
	movq	__init_mdp@GOTPCREL(%rip), %rax
	movq	%rdx, (%rax)
	ret
	.cfi_endproc
.LFE69:
	.size	__alnk_init_mdp, .-__alnk_init_mdp
	.p2align 4,,15
	.globl	__alnk_fixup_allmods_comm_idp_areas
	.type	__alnk_fixup_allmods_comm_idp_areas, @function
__alnk_fixup_allmods_comm_idp_areas:
.LFB70:
	.cfi_startproc
	movq	__dsgn_num_mods@GOTPCREL(%rip), %rax
	movl	(%rax), %edx
	testl	%edx, %edx
	jle	.L571
	pushq	%r15
	.cfi_def_cfa_offset 16
	.cfi_offset 15, -16
	pushq	%r14
	.cfi_def_cfa_offset 24
	.cfi_offset 14, -24
	xorl	%r14d, %r14d
	pushq	%r13
	.cfi_def_cfa_offset 32
	.cfi_offset 13, -32
	pushq	%r12
	.cfi_def_cfa_offset 40
	.cfi_offset 12, -40
	pushq	%rbp
	.cfi_def_cfa_offset 48
	.cfi_offset 6, -48
	pushq	%rbx
	.cfi_def_cfa_offset 56
	.cfi_offset 3, -56
	subq	$24, %rsp
	.cfi_def_cfa_offset 80
	movl	$0, 12(%rsp)
	.p2align 4,,10
	.p2align 3
.L544:
	movq	__dsgn_mod_ndx@GOTPCREL(%rip), %rax
	movq	(%rax), %rax
	movq	(%rax,%r14), %r12
	movl	36(%r12), %eax
	movq	192(%r12), %rbx
	testl	%eax, %eax
	jle	.L530
	xorl	%ebp, %ebp
	.p2align 4,,10
	.p2align 3
.L541:
	movq	72(%rbx), %rax
	testq	%rax, %rax
	je	.L531
	.p2align 4,,10
	.p2align 3
.L533:
	movzbl	1(%rax), %edx
	andl	$3, %edx
	cmpb	$2, %dl
	jne	.L532
	movzbl	(%rax), %edx
	andl	$48, %edx
	cmpb	$32, %dl
	jne	.L532
	movq	24(%rax), %rdx
	movq	8(%rdx), %rcx
	movq	(%rdx), %rsi
	movq	408(%rcx), %rcx
	leaq	(%rcx,%rsi,8), %rcx
	movq	%rcx, 32(%rdx)
.L532:
	movq	32(%rax), %rax
	testq	%rax, %rax
	jne	.L533
.L531:
	movq	80(%rbx), %rax
	testq	%rax, %rax
	je	.L534
	.p2align 4,,10
	.p2align 3
.L536:
	movzbl	1(%rax), %edx
	andl	$3, %edx
	cmpb	$2, %dl
	jne	.L535
	movzbl	(%rax), %edx
	andl	$48, %edx
	cmpb	$32, %dl
	jne	.L535
	movq	24(%rax), %rdx
	movq	8(%rdx), %rcx
	movq	(%rdx), %rsi
	movq	408(%rcx), %rcx
	leaq	(%rcx,%rsi,8), %rcx
	movq	%rcx, 32(%rdx)
.L535:
	movq	32(%rax), %rax
	testq	%rax, %rax
	jne	.L536
.L534:
	movq	64(%rbx), %r15
	testq	%r15, %r15
	jne	.L540
	jmp	.L537
	.p2align 4,,10
	.p2align 3
.L538:
	movq	128(%r15), %r15
	testq	%r15, %r15
	je	.L537
.L540:
	cmpb	$0, 2(%r15)
	jns	.L538
	movq	32(%r15), %r13
	testq	%r13, %r13
	movq	%r13, %rdi
	je	.L574
.L539:
	movq	8(%r13), %rcx
	movq	0(%r13), %rsi
	movq	408(%rcx), %rcx
	leaq	(%rcx,%rsi,8), %rcx
	movq	24(%r13), %rsi
	movq	%rcx, 96(%r15)
	movq	16(%r13), %rcx
	movq	408(%rsi), %rdx
	movl	$32, %esi
	leaq	(%rdx,%rcx,8), %rdx
	movq	%rdx, 104(%r15)
	call	__my_free@PLT
	movq	$0, 32(%r15)
	movq	128(%r15), %r15
	testq	%r15, %r15
	jne	.L540
.L537:
	addl	$1, %ebp
	addq	$248, %rbx
	cmpl	36(%r12), %ebp
	jl	.L541
.L530:
	movl	12(%r12), %eax
	movq	408(%r12), %rdx
	testl	%eax, %eax
	jle	.L542
	movq	208(%r12), %rcx
	movq	416(%r12), %rbx
	leal	-1(%rax), %edi
	leaq	8(%rcx), %rax
	leaq	0(,%rbx,8), %rsi
	leaq	(%rax,%rdi,8), %rdi
	jmp	.L543
	.p2align 4,,10
	.p2align 3
.L575:
	addq	$8, %rax
.L543:
	movq	(%rcx), %rcx
	movq	%rdx, 8(%rcx)
	addq	%rsi, %rdx
	cmpq	%rax, %rdi
	movq	%rax, %rcx
	jne	.L575
.L542:
	movq	__dsgn_num_mods@GOTPCREL(%rip), %rbx
	addl	$1, 12(%rsp)
	addq	$8, %r14
	movl	12(%rsp), %eax
	movl	(%rbx), %edx
	cmpl	%eax, %edx
	jg	.L544
	testl	%edx, %edx
	jle	.L528
	movq	__dsgn_mod_ndx@GOTPCREL(%rip), %rax
	subl	$1, %edx
	movq	(%rax), %rax
	leaq	8(%rax), %rdi
	leaq	(%rdi,%rdx,8), %r8
	.p2align 4,,10
	.p2align 3
.L548:
	movq	(%rax), %rdx
	movl	12(%rdx), %eax
	testl	%eax, %eax
	jle	.L545
	movq	208(%rdx), %rdx
	leal	-1(%rax), %ecx
	leaq	8(%rdx), %rax
	leaq	(%rax,%rcx,8), %rsi
	jmp	.L547
	.p2align 4,,10
	.p2align 3
.L576:
	addq	$8, %rax
.L547:
	movq	(%rdx), %rcx
	movq	16(%rcx), %rdx
	testq	%rdx, %rdx
	je	.L546
	movq	8(%rcx), %rcx
	movq	8(%rdx), %rdx
	movq	%rdx, 24(%rcx)
.L546:
	cmpq	%rsi, %rax
	movq	%rax, %rdx
	jne	.L576
.L545:
	cmpq	%rdi, %r8
	movq	%rdi, %rax
	je	.L528
	addq	$8, %rdi
	jmp	.L548
	.p2align 4,,10
	.p2align 3
.L574:
	leaq	.LC1(%rip), %rdi
	movl	$635, %esi
	call	__misc_terr@PLT
	movq	32(%r15), %rdi
	jmp	.L539
.L528:
	addq	$24, %rsp
	.cfi_def_cfa_offset 56
	popq	%rbx
	.cfi_def_cfa_offset 48
	popq	%rbp
	.cfi_def_cfa_offset 40
	popq	%r12
	.cfi_def_cfa_offset 32
	popq	%r13
	.cfi_def_cfa_offset 24
	popq	%r14
	.cfi_def_cfa_offset 16
	popq	%r15
	.cfi_def_cfa_offset 8
	ret
.L571:
	.cfi_restore 3
	.cfi_restore 6
	.cfi_restore 12
	.cfi_restore 13
	.cfi_restore 14
	.cfi_restore 15
	rep ret
	.cfi_endproc
.LFE70:
	.size	__alnk_fixup_allmods_comm_idp_areas, .-__alnk_fixup_allmods_comm_idp_areas
	.p2align 4,,15
	.globl	__alnk_init_tev_dat
	.type	__alnk_init_tev_dat, @function
__alnk_init_tev_dat:
.LFB72:
	.cfi_startproc
	movq	__init_mdp@GOTPCREL(%rip), %rax
	movq	(%rax), %r10
	movq	__tevdat_template@GOTPCREL(%rip), %rax
	movdqu	(%rax), %xmm0
	movups	%xmm0, (%rdi)
	movdqu	16(%rax), %xmm0
	movups	%xmm0, 16(%rdi)
	movdqu	32(%rax), %xmm0
	movups	%xmm0, 32(%rdi)
	movdqu	48(%rax), %xmm0
	movups	%xmm0, 48(%rdi)
	movdqu	64(%rax), %xmm0
	movups	%xmm0, 64(%rdi)
	movdqu	80(%rax), %xmm0
	movups	%xmm0, 80(%rdi)
	movq	96(%rax), %r9
	movq	%rdx, 24(%rdi)
	movq	%r9, 96(%rdi)
	cmpl	$1, 12(%r10)
	movq	408(%r10), %r11
	movq	%r8, 64(%rdi)
	movq	%r11, 56(%rdi)
	jle	.L578
	movq	%rdi, (%r11,%rcx,8)
.L578:
	cmpl	$1, %esi
	jle	.L584
	subl	$2, %esi
	pushq	%rbp
	.cfi_def_cfa_offset 16
	.cfi_offset 6, -16
	pushq	%rbx
	.cfi_def_cfa_offset 24
	.cfi_offset 3, -24
	addq	$1, %rsi
	leaq	(%rsi,%rsi,2), %r9
	leaq	(%rsi,%r9,4), %rsi
	movl	$1, %r9d
	leaq	(%rdi,%rsi,8), %rbp
	.p2align 4,,10
	.p2align 3
.L581:
	movdqu	(%rax), %xmm0
	addq	$104, %rdi
	movups	%xmm0, (%rdi)
	movdqu	16(%rax), %xmm0
	movups	%xmm0, 16(%rdi)
	movdqu	32(%rax), %xmm0
	movups	%xmm0, 32(%rdi)
	movdqu	48(%rax), %xmm0
	movups	%xmm0, 48(%rdi)
	movdqu	64(%rax), %xmm0
	movups	%xmm0, 64(%rdi)
	movdqu	80(%rax), %xmm0
	movups	%xmm0, 80(%rdi)
	movq	96(%rax), %rsi
	movq	%r8, 64(%rdi)
	movq	%rsi, 96(%rdi)
	movq	416(%r10), %rsi
	movq	%rdx, 24(%rdi)
	imulq	%r9, %rsi
	cmpl	$1, 12(%r10)
	leaq	(%r11,%rsi,8), %rbx
	movq	%rbx, 56(%rdi)
	jle	.L580
	addq	%rcx, %rsi
	movq	%rdi, (%r11,%rsi,8)
.L580:
	addq	$1, %r9
	cmpq	%rdi, %rbp
	jne	.L581
	popq	%rbx
	.cfi_def_cfa_offset 16
	popq	%rbp
	.cfi_def_cfa_offset 8
	ret
	.p2align 4,,10
	.p2align 3
.L584:
	.cfi_restore 3
	.cfi_restore 6
	rep ret
	.cfi_endproc
.LFE72:
	.size	__alnk_init_tev_dat, .-__alnk_init_tev_dat
	.p2align 4,,15
	.globl	__alnk_init_tev_dat_nodelay
	.type	__alnk_init_tev_dat_nodelay, @function
__alnk_init_tev_dat_nodelay:
.LFB73:
	.cfi_startproc
	movq	__init_mdp@GOTPCREL(%rip), %rax
	movq	(%rax), %r9
	movq	__tevdat_template@GOTPCREL(%rip), %rax
	movdqu	(%rax), %xmm0
	movups	%xmm0, (%rdi)
	movdqu	16(%rax), %xmm0
	movups	%xmm0, 16(%rdi)
	movdqu	32(%rax), %xmm0
	movups	%xmm0, 32(%rdi)
	movdqu	48(%rax), %xmm0
	movups	%xmm0, 48(%rdi)
	movdqu	64(%rax), %xmm0
	movups	%xmm0, 64(%rdi)
	movdqu	80(%rax), %xmm0
	movups	%xmm0, 80(%rdi)
	movq	96(%rax), %r8
	movq	%rdx, 24(%rdi)
	movq	%r8, 96(%rdi)
	cmpl	$1, 12(%r9)
	movq	408(%r9), %r10
	movq	%r10, 56(%rdi)
	jle	.L588
	movq	%rdi, (%r10,%rcx,8)
.L588:
	cmpl	$1, %esi
	jle	.L594
	subl	$2, %esi
	pushq	%rbx
	.cfi_def_cfa_offset 16
	.cfi_offset 3, -16
	addq	$1, %rsi
	leaq	(%rsi,%rsi,2), %r8
	leaq	(%rsi,%r8,4), %rsi
	movl	$1, %r8d
	leaq	(%rdi,%rsi,8), %rbx
	.p2align 4,,10
	.p2align 3
.L591:
	movdqu	(%rax), %xmm0
	addq	$104, %rdi
	movups	%xmm0, (%rdi)
	movdqu	16(%rax), %xmm0
	movups	%xmm0, 16(%rdi)
	movdqu	32(%rax), %xmm0
	movups	%xmm0, 32(%rdi)
	movdqu	48(%rax), %xmm0
	movups	%xmm0, 48(%rdi)
	movdqu	64(%rax), %xmm0
	movups	%xmm0, 64(%rdi)
	movdqu	80(%rax), %xmm0
	movups	%xmm0, 80(%rdi)
	movq	96(%rax), %rsi
	movq	%rdx, 24(%rdi)
	movq	%rsi, 96(%rdi)
	movq	416(%r9), %rsi
	imulq	%r8, %rsi
	cmpl	$1, 12(%r9)
	leaq	(%r10,%rsi,8), %r11
	movq	%r11, 56(%rdi)
	jle	.L590
	addq	%rcx, %rsi
	movq	%rdi, (%r10,%rsi,8)
.L590:
	addq	$1, %r8
	cmpq	%rdi, %rbx
	jne	.L591
	popq	%rbx
	.cfi_def_cfa_offset 8
	ret
	.p2align 4,,10
	.p2align 3
.L594:
	.cfi_restore 3
	rep ret
	.cfi_endproc
.LFE73:
	.size	__alnk_init_tev_dat_nodelay, .-__alnk_init_tev_dat_nodelay
	.p2align 4,,15
	.globl	__alnk_init_nchglst_el
	.type	__alnk_init_nchglst_el, @function
__alnk_init_nchglst_el:
.LFB74:
	.cfi_startproc
	movq	__init_mdp@GOTPCREL(%rip), %rax
	movslq	%edx, %rdx
	movq	(%rax), %r8
	movq	__nchglst_template@GOTPCREL(%rip), %rax
	movdqu	(%rax), %xmm0
	movups	%xmm0, (%rdi)
	movdqu	16(%rax), %xmm0
	movups	%xmm0, 16(%rdi)
	movdqu	32(%rax), %xmm0
	movups	%xmm0, 32(%rdi)
	movq	48(%rax), %rax
	movq	%rsi, 8(%rdi)
	movq	%rax, 48(%rdi)
	movq	%rdx, %rax
	movq	408(%r8), %r9
	salq	$5, %rax
	subq	%rdx, %rax
	movq	192(%r8), %rdx
	cmpq	$-1, %rcx
	movq	%r9, 40(%rdi)
	leaq	(%rdx,%rax,8), %rax
	movq	%rax, 32(%rdi)
	je	.L598
	movq	%rdi, (%r9,%rcx,8)
.L598:
	cmpl	$1, 12(%r8)
	jle	.L597
	leaq	56(%rdi), %rax
	movl	$1, %edx
	.p2align 4,,10
	.p2align 3
.L601:
	movdqu	(%rdi), %xmm0
	movups	%xmm0, (%rax)
	movdqu	16(%rdi), %xmm0
	movups	%xmm0, 16(%rax)
	movdqu	32(%rdi), %xmm0
	movups	%xmm0, 32(%rax)
	movq	48(%rdi), %rsi
	movq	%rsi, 48(%rax)
	movq	416(%r8), %rsi
	imulq	%rdx, %rsi
	cmpq	$-1, %rcx
	leaq	(%r9,%rsi,8), %r10
	movq	%r10, 40(%rax)
	je	.L600
	addq	%rcx, %rsi
	movq	%rax, (%r9,%rsi,8)
.L600:
	leal	1(%rdx), %esi
	addq	$56, %rax
	addq	$1, %rdx
	cmpl	%esi, 12(%r8)
	jg	.L601
.L597:
	rep ret
	.cfi_endproc
.LFE74:
	.size	__alnk_init_nchglst_el, .-__alnk_init_nchglst_el
	.p2align 4,,15
	.globl	__alnk_init_nchglst_el_npp
	.type	__alnk_init_nchglst_el_npp, @function
__alnk_init_nchglst_el_npp:
.LFB75:
	.cfi_startproc
	movq	__init_mdp@GOTPCREL(%rip), %rax
	movslq	%edx, %rdx
	movq	(%rax), %r9
	movq	__nchglst_template@GOTPCREL(%rip), %rax
	movdqu	(%rax), %xmm0
	movups	%xmm0, (%rdi)
	movdqu	16(%rax), %xmm0
	movups	%xmm0, 16(%rdi)
	movdqu	32(%rax), %xmm0
	movups	%xmm0, 32(%rdi)
	movq	48(%rax), %rax
	movq	%rsi, 8(%rdi)
	movq	%rax, 48(%rdi)
	movq	%rdx, %rax
	salq	$5, %rax
	subq	%rdx, %rax
	movq	192(%r9), %rdx
	cmpq	$-1, %rcx
	leaq	(%rdx,%rax,8), %rax
	movq	%rax, 32(%rdi)
	movq	%r8, 168(%rax)
	movq	408(%r9), %r8
	movq	%r8, 40(%rdi)
	je	.L610
	movq	%rdi, (%r8,%rcx,8)
.L610:
	cmpl	$1, 12(%r9)
	jle	.L609
	leaq	56(%rdi), %rax
	movl	$1, %edx
	.p2align 4,,10
	.p2align 3
.L613:
	movdqu	(%rdi), %xmm0
	movups	%xmm0, (%rax)
	movdqu	16(%rdi), %xmm0
	movups	%xmm0, 16(%rax)
	movdqu	32(%rdi), %xmm0
	movups	%xmm0, 32(%rax)
	movq	48(%rdi), %rsi
	movq	%rsi, 48(%rax)
	movq	416(%r9), %rsi
	imulq	%rdx, %rsi
	cmpq	$-1, %rcx
	leaq	(%r8,%rsi,8), %r10
	movq	%r10, 40(%rax)
	je	.L612
	addq	%rcx, %rsi
	movq	%rax, (%r8,%rsi,8)
.L612:
	leal	1(%rdx), %esi
	addq	$56, %rax
	addq	$1, %rdx
	cmpl	%esi, 12(%r9)
	jg	.L613
.L609:
	rep ret
	.cfi_endproc
.LFE75:
	.size	__alnk_init_nchglst_el_npp, .-__alnk_init_nchglst_el_npp
	.p2align 4,,15
	.globl	__alnk_init_nchglst_el_rng
	.type	__alnk_init_nchglst_el_rng, @function
__alnk_init_nchglst_el_rng:
.LFB76:
	.cfi_startproc
	movq	__init_mdp@GOTPCREL(%rip), %rax
	movslq	%edx, %rdx
	movq	(%rax), %r10
	movq	__nchglst_template@GOTPCREL(%rip), %rax
	movdqu	(%rax), %xmm0
	movups	%xmm0, (%rdi)
	movdqu	16(%rax), %xmm0
	movups	%xmm0, 16(%rdi)
	movdqu	32(%rax), %xmm0
	movups	%xmm0, 32(%rdi)
	movq	48(%rax), %rax
	movl	%r8d, 24(%rdi)
	movq	%rax, 48(%rdi)
	movq	%rdx, %rax
	movq	408(%r10), %r8
	salq	$5, %rax
	movq	%rsi, 8(%rdi)
	movl	%r9d, 28(%rdi)
	subq	%rdx, %rax
	movq	192(%r10), %rdx
	cmpq	$-1, %rcx
	movq	%r8, 40(%rdi)
	leaq	(%rdx,%rax,8), %rax
	movq	%rax, 32(%rdi)
	je	.L622
	movq	%rdi, (%r8,%rcx,8)
.L622:
	cmpl	$1, 12(%r10)
	jle	.L621
	leaq	56(%rdi), %rax
	movl	$1, %edx
	.p2align 4,,10
	.p2align 3
.L625:
	movdqu	(%rdi), %xmm0
	movups	%xmm0, (%rax)
	movdqu	16(%rdi), %xmm0
	movups	%xmm0, 16(%rax)
	movdqu	32(%rdi), %xmm0
	movups	%xmm0, 32(%rax)
	movq	48(%rdi), %rsi
	movq	%rsi, 48(%rax)
	movq	416(%r10), %rsi
	imulq	%rdx, %rsi
	cmpq	$-1, %rcx
	leaq	(%r8,%rsi,8), %r9
	movq	%r9, 40(%rax)
	je	.L624
	addq	%rcx, %rsi
	movq	%rax, (%r8,%rsi,8)
.L624:
	leal	1(%rdx), %esi
	addq	$56, %rax
	addq	$1, %rdx
	cmpl	%esi, 12(%r10)
	jg	.L625
.L621:
	rep ret
	.cfi_endproc
.LFE76:
	.size	__alnk_init_nchglst_el_rng, .-__alnk_init_nchglst_el_rng
	.p2align 4,,15
	.globl	__alnk_init_nchglst_el_rng_npp
	.type	__alnk_init_nchglst_el_rng_npp, @function
__alnk_init_nchglst_el_rng_npp:
.LFB77:
	.cfi_startproc
	movq	__init_mdp@GOTPCREL(%rip), %rax
	movslq	%edx, %rdx
	movq	(%rax), %r10
	movq	__nchglst_template@GOTPCREL(%rip), %rax
	movdqu	(%rax), %xmm0
	movups	%xmm0, (%rdi)
	movdqu	16(%rax), %xmm0
	movups	%xmm0, 16(%rdi)
	movdqu	32(%rax), %xmm0
	movups	%xmm0, 32(%rdi)
	movq	48(%rax), %rax
	movl	%r8d, 24(%rdi)
	movq	%rax, 48(%rdi)
	movq	%rdx, %rax
	movq	408(%r10), %r8
	salq	$5, %rax
	movq	%rsi, 8(%rdi)
	movl	%r9d, 28(%rdi)
	subq	%rdx, %rax
	movq	192(%r10), %rdx
	cmpq	$-1, %rcx
	leaq	(%rdx,%rax,8), %rax
	movq	8(%rsp), %rdx
	movq	%rax, 32(%rdi)
	movq	%rdx, 168(%rax)
	movq	%r8, 40(%rdi)
	je	.L634
	movq	%rdi, (%r8,%rcx,8)
.L634:
	cmpl	$1, 12(%r10)
	jle	.L633
	leaq	56(%rdi), %rax
	movl	$1, %edx
	.p2align 4,,10
	.p2align 3
.L637:
	movdqu	(%rdi), %xmm0
	movups	%xmm0, (%rax)
	movdqu	16(%rdi), %xmm0
	movups	%xmm0, 16(%rax)
	movdqu	32(%rdi), %xmm0
	movups	%xmm0, 32(%rax)
	movq	48(%rdi), %rsi
	movq	%rsi, 48(%rax)
	movq	416(%r10), %rsi
	imulq	%rdx, %rsi
	cmpq	$-1, %rcx
	leaq	(%r8,%rsi,8), %r9
	movq	%r9, 40(%rax)
	je	.L636
	addq	%rcx, %rsi
	movq	%rax, (%r8,%rsi,8)
.L636:
	leal	1(%rdx), %esi
	addq	$56, %rax
	addq	$1, %rdx
	cmpl	%esi, 12(%r10)
	jg	.L637
.L633:
	rep ret
	.cfi_endproc
.LFE77:
	.size	__alnk_init_nchglst_el_rng_npp, .-__alnk_init_nchglst_el_rng_npp
	.p2align 4,,15
	.globl	__alnk_set_tev_gp_u
	.type	__alnk_set_tev_gp_u, @function
__alnk_set_tev_gp_u:
.LFB78:
	.cfi_startproc
	testl	%edx, %edx
	jle	.L645
	movq	__init_mdp@GOTPCREL(%rip), %rax
	movslq	%esi, %rsi
	subl	$1, %edx
	leaq	(%rsi,%rsi,2), %rcx
	leaq	(%rdx,%rdx,2), %rsi
	movq	(%rax), %rax
	leaq	(%rdx,%rsi,4), %rdx
	salq	$5, %rcx
	leaq	112(%rdi,%rdx,8), %rdx
	addq	152(%rax), %rcx
	leaq	8(%rdi), %rax
	.p2align 4,,10
	.p2align 3
.L647:
	movq	%rcx, (%rax)
	addq	$104, %rax
	cmpq	%rdx, %rax
	jne	.L647
.L645:
	rep ret
	.cfi_endproc
.LFE78:
	.size	__alnk_set_tev_gp_u, .-__alnk_set_tev_gp_u
	.p2align 4,,15
	.globl	__alnk_set_tev_nxtptr
	.type	__alnk_set_tev_nxtptr, @function
__alnk_set_tev_nxtptr:
.LFB79:
	.cfi_startproc
	movq	__process_next_ev_enterp@GOTPCREL(%rip), %rax
	movq	(%rax), %rax
	movq	%rax, 32(%rdi)
	ret
	.cfi_endproc
.LFE79:
	.size	__alnk_set_tev_nxtptr, .-__alnk_set_tev_nxtptr
	.p2align 4,,15
	.globl	__alnk_set_tev_nb_free_nextevptr
	.type	__alnk_set_tev_nb_free_nextevptr, @function
__alnk_set_tev_nb_free_nextevptr:
.LFB80:
	.cfi_startproc
	testl	%edx, %edx
	jle	.L650
	subl	$1, %edx
	leaq	32(%rdi), %rax
	leaq	(%rdx,%rdx,2), %rcx
	leaq	(%rdx,%rcx,4), %rdx
	leaq	136(%rdi,%rdx,8), %rdx
	.p2align 4,,10
	.p2align 3
.L652:
	movq	%rsi, (%rax)
	addq	$104, %rax
	cmpq	%rdx, %rax
	jne	.L652
.L650:
	rep ret
	.cfi_endproc
.LFE80:
	.size	__alnk_set_tev_nb_free_nextevptr, .-__alnk_set_tev_nb_free_nextevptr
	.p2align 4,,15
	.globl	__alnk_tev_set_tu_nbrhs
	.type	__alnk_tev_set_tu_nbrhs, @function
__alnk_tev_set_tu_nbrhs:
.LFB81:
	.cfi_startproc
	leal	15(%rdx), %eax
	testl	%edx, %edx
	cmovs	%eax, %edx
	sall	$2, %edx
	sarl	$6, %edx
	testl	%ecx, %ecx
	jle	.L654
	subl	$1, %ecx
	addl	%edx, %edx
	leaq	8(%rdi), %rax
	leaq	(%rcx,%rcx,2), %r8
	movslq	%edx, %rdx
	salq	$3, %rdx
	leaq	(%rcx,%r8,4), %rcx
	leaq	112(%rdi,%rcx,8), %rcx
	.p2align 4,,10
	.p2align 3
.L656:
	movq	%rsi, (%rax)
	addq	$104, %rax
	addq	%rdx, %rsi
	cmpq	%rcx, %rax
	jne	.L656
.L654:
	rep ret
	.cfi_endproc
.LFE81:
	.size	__alnk_tev_set_tu_nbrhs, .-__alnk_tev_set_tu_nbrhs
	.p2align 4,,15
	.globl	__alnk_tev_set_tu_nbrhs_2s
	.type	__alnk_tev_set_tu_nbrhs_2s, @function
__alnk_tev_set_tu_nbrhs_2s:
.LFB82:
	.cfi_startproc
	leal	7(%rdx), %eax
	testl	%edx, %edx
	cmovs	%eax, %edx
	sall	$3, %edx
	sarl	$6, %edx
	testl	%ecx, %ecx
	jle	.L658
	subl	$1, %ecx
	movslq	%edx, %rdx
	leaq	8(%rdi), %rax
	leaq	(%rcx,%rcx,2), %r8
	salq	$3, %rdx
	leaq	(%rcx,%r8,4), %rcx
	leaq	112(%rdi,%rcx,8), %rcx
	.p2align 4,,10
	.p2align 3
.L660:
	movq	%rsi, (%rax)
	addq	$104, %rax
	addq	%rdx, %rsi
	cmpq	%rcx, %rax
	jne	.L660
.L658:
	rep ret
	.cfi_endproc
.LFE82:
	.size	__alnk_tev_set_tu_nbrhs_2s, .-__alnk_tev_set_tu_nbrhs_2s
	.p2align 4,,15
	.globl	__alnk_set_tev_del
	.type	__alnk_set_tev_del, @function
__alnk_set_tev_del:
.LFB83:
	.cfi_startproc
	testl	%edx, %edx
	jle	.L662
	subl	$1, %edx
	leaq	64(%rdi), %rax
	leaq	(%rdx,%rdx,2), %rcx
	leaq	(%rdx,%rcx,4), %rdx
	leaq	168(%rdi,%rdx,8), %rdx
	.p2align 4,,10
	.p2align 3
.L664:
	movq	%rsi, (%rax)
	addq	$104, %rax
	cmpq	%rdx, %rax
	jne	.L664
.L662:
	rep ret
	.cfi_endproc
.LFE83:
	.size	__alnk_set_tev_del, .-__alnk_set_tev_del
	.p2align 4,,15
	.globl	__alnk_cp_is1v_32b_tev_dels
	.type	__alnk_cp_is1v_32b_tev_dels, @function
__alnk_cp_is1v_32b_tev_dels:
.LFB84:
	.cfi_startproc
	cmpl	$1, %edx
	jle	.L666
	subl	$2, %edx
	leaq	168(%rdi), %rax
	addq	$8, %rsi
	leaq	(%rdx,%rdx,2), %rcx
	leaq	(%rdx,%rcx,4), %rdx
	leaq	272(%rdi,%rdx,8), %rcx
	.p2align 4,,10
	.p2align 3
.L668:
	movq	(%rsi), %rdx
	addq	$104, %rax
	addq	$8, %rsi
	movq	%rdx, -104(%rax)
	cmpq	%rcx, %rax
	jne	.L668
.L666:
	rep ret
	.cfi_endproc
.LFE84:
	.size	__alnk_cp_is1v_32b_tev_dels, .-__alnk_cp_is1v_32b_tev_dels
	.p2align 4,,15
	.globl	__alnk_cp_is1v_64b_tev_dels
	.type	__alnk_cp_is1v_64b_tev_dels, @function
__alnk_cp_is1v_64b_tev_dels:
.LFB85:
	.cfi_startproc
	addl	%edx, %edx
	cmpl	$2, %edx
	jle	.L670
	subl	$3, %edx
	leaq	272(%rdi), %rcx
	addq	$16, %rsi
	shrl	%edx
	movl	%edx, %eax
	leaq	(%rax,%rax,2), %rdx
	leaq	(%rax,%rdx,4), %rax
	salq	$4, %rax
	leaq	480(%rdi,%rax), %rdx
	.p2align 4,,10
	.p2align 3
.L672:
	movq	8(%rsi), %rax
	addq	$208, %rcx
	addq	$16, %rsi
	salq	$32, %rax
	orq	-16(%rsi), %rax
	movq	%rax, -208(%rcx)
	cmpq	%rdx, %rcx
	jne	.L672
.L670:
	rep ret
	.cfi_endproc
.LFE85:
	.size	__alnk_cp_is1v_64b_tev_dels, .-__alnk_cp_is1v_64b_tev_dels
	.p2align 4,,15
	.globl	__alnk_set_trchan_vtx_nchgs
	.type	__alnk_set_trchan_vtx_nchgs, @function
__alnk_set_trchan_vtx_nchgs:
.LFB86:
	.cfi_startproc
	pushq	%r15
	.cfi_def_cfa_offset 16
	.cfi_offset 15, -16
	pushq	%r14
	.cfi_def_cfa_offset 24
	.cfi_offset 14, -24
	pushq	%r13
	.cfi_def_cfa_offset 32
	.cfi_offset 13, -32
	pushq	%r12
	.cfi_def_cfa_offset 40
	.cfi_offset 12, -40
	pushq	%rbp
	.cfi_def_cfa_offset 48
	.cfi_offset 6, -48
	pushq	%rbx
	.cfi_def_cfa_offset 56
	.cfi_offset 3, -56
	subq	$72, %rsp
	.cfi_def_cfa_offset 128
	movq	__init_mdp@GOTPCREL(%rip), %rax
	movq	(%rax), %rax
	movl	36(%rax), %edx
	movq	%rax, 40(%rsp)
	movq	192(%rax), %r15
	testl	%edx, %edx
	jle	.L674
	movl	$0, 60(%rsp)
	movq	%r15, %r14
	.p2align 4,,10
	.p2align 3
.L690:
	movq	88(%r14), %rax
	testq	%rax, %rax
	movq	%rax, 8(%rsp)
	je	.L676
	movq	8(%rax), %rax
	movq	__chantab@GOTPCREL(%rip), %rsi
	movq	(%rax), %rax
	movslq	(%rax), %rax
	leaq	(%rax,%rax,4), %rax
	salq	$3, %rax
	addq	(%rsi), %rax
	testb	$64, (%rax)
	jne	.L676
	movq	40(%rsp), %rax
	movl	12(%rax), %eax
	testl	%eax, %eax
	jle	.L676
	movq	$0, 48(%rsp)
	movl	$0, 4(%rsp)
	.p2align 4,,10
	.p2align 3
.L689:
	movq	40(%rsp), %rax
	movq	48(%rsp), %rdi
	movq	208(%rax), %rax
	movq	(%rax,%rdi), %rax
	movq	8(%rax), %rax
	movq	%rax, 16(%rsp)
	movl	8(%r14), %eax
	movl	%eax, %ebp
	subl	$1, %ebp
	js	.L677
	.p2align 4,,10
	.p2align 3
.L688:
	imull	4(%rsp), %eax
	movq	8(%rsp), %rcx
	movq	8(%rcx), %rdx
	addl	%ebp, %eax
	cltq
	movq	(%rdx,%rax,8), %r13
	testq	%r13, %r13
	je	.L678
	movslq	0(%r13), %rax
	testb	$4, 2(%r14)
	leaq	(%rax,%rax,4), %rdx
	movq	__chantab@GOTPCREL(%rip), %rax
	movq	(%rax), %rax
	leaq	(%rax,%rdx,8), %r12
	je	.L679
	movl	%ebp, %edx
	movl	%ebp, %esi
	movq	%r14, %rdi
	call	__net_chg_nd_store@PLT
	testl	%eax, %eax
	jne	.L717
.L681:
	movq	24(%r12), %rbx
	testq	%rbx, %rbx
	je	.L678
	cmpq	$0, 32(%r12)
	je	.L678
	leaq	8(%r13), %rax
	movl	$1, %r15d
	movl	%ebp, 56(%rsp)
	movq	%r13, 32(%rsp)
	movq	%r15, %rbp
	movq	%rbx, %r15
	movq	%rax, 24(%rsp)
	jmp	.L687
	.p2align 4,,10
	.p2align 3
.L720:
	movl	8(%r15), %r13d
	movq	%rbx, %rdi
	movl	%r13d, %edx
	movl	%r13d, %esi
	call	__net_chg_nd_store@PLT
	testl	%eax, %eax
	jne	.L718
.L684:
	addq	$24, %r15
	cmpq	%rbp, 32(%r12)
	leaq	1(%rbp), %rax
	jbe	.L719
.L691:
	movq	%rax, %rbp
.L687:
	movq	(%r15), %rbx
	cmpq	%r14, %rbx
	je	.L684
	testb	$4, 2(%rbx)
	jne	.L720
	movl	$-1, %edx
	movq	%rbx, %rdi
	movl	%edx, %esi
	call	__net_chg_nd_store@PLT
	testl	%eax, %eax
	je	.L684
	movq	32(%rsp), %rax
	movq	16(%rsp), %r8
	movl	$-1, %esi
	movq	24(%rsp), %rcx
	movq	%rbx, %rdi
	addq	$24, %r15
	movl	(%rax), %edx
	call	set_trchan_1vtx_nchg_fld.isra.3
	cmpq	%rbp, 32(%r12)
	leaq	1(%rbp), %rax
	ja	.L691
	.p2align 4,,10
	.p2align 3
.L719:
	movl	56(%rsp), %ebp
.L678:
	subl	$1, %ebp
	cmpl	$-1, %ebp
	je	.L677
	movl	8(%r14), %eax
	jmp	.L688
	.p2align 4,,10
	.p2align 3
.L679:
	movl	$-1, %edx
	movq	%r14, %rdi
	movl	%edx, %esi
	call	__net_chg_nd_store@PLT
	testl	%eax, %eax
	je	.L681
	movq	16(%rsp), %r8
	movl	0(%r13), %edx
	leaq	8(%r13), %rcx
	movl	$-1, %esi
	movq	%r14, %rdi
	call	set_trchan_1vtx_nchg_fld.isra.3
	jmp	.L681
	.p2align 4,,10
	.p2align 3
.L718:
	movq	32(%rsp), %rax
	movq	16(%rsp), %r8
	movl	%r13d, %esi
	movq	24(%rsp), %rcx
	movq	%rbx, %rdi
	movl	(%rax), %edx
	call	set_trchan_1vtx_nchg_fld.isra.3
	jmp	.L684
	.p2align 4,,10
	.p2align 3
.L677:
	movq	40(%rsp), %rdi
	addl	$1, 4(%rsp)
	movl	4(%rsp), %eax
	addq	$8, 48(%rsp)
	cmpl	%eax, 12(%rdi)
	jg	.L689
.L676:
	movq	40(%rsp), %rsi
	addl	$1, 60(%rsp)
	addq	$248, %r14
	movl	60(%rsp), %eax
	cmpl	%eax, 36(%rsi)
	jg	.L690
.L674:
	addq	$72, %rsp
	.cfi_remember_state
	.cfi_def_cfa_offset 56
	popq	%rbx
	.cfi_def_cfa_offset 48
	popq	%rbp
	.cfi_def_cfa_offset 40
	popq	%r12
	.cfi_def_cfa_offset 32
	popq	%r13
	.cfi_def_cfa_offset 24
	popq	%r14
	.cfi_def_cfa_offset 16
	popq	%r15
	.cfi_def_cfa_offset 8
	ret
	.p2align 4,,10
	.p2align 3
.L717:
	.cfi_restore_state
	movq	16(%rsp), %r8
	movl	0(%r13), %edx
	leaq	8(%r13), %rcx
	movl	%ebp, %esi
	movq	%r14, %rdi
	call	set_trchan_1vtx_nchg_fld.isra.3
	jmp	.L681
	.cfi_endproc
.LFE86:
	.size	__alnk_set_trchan_vtx_nchgs, .-__alnk_set_trchan_vtx_nchgs
	.p2align 4,,15
	.globl	__alnk_set_udptab_adrs
	.type	__alnk_set_udptab_adrs, @function
__alnk_set_udptab_adrs:
.LFB88:
	.cfi_startproc
	movq	__dsgn_udp_ndx@GOTPCREL(%rip), %rax
	movslq	%edx, %rdx
	testq	%rsi, %rsi
	movq	(%rax), %rax
	movq	(%rax,%rdx,8), %rax
	movq	48(%rax), %rax
	movq	(%rax), %rdx
	movq	%rdx, (%rdi)
	je	.L721
	movq	8(%rax), %rax
	movq	%rax, (%rsi)
.L721:
	rep ret
	.cfi_endproc
.LFE88:
	.size	__alnk_set_udptab_adrs, .-__alnk_set_udptab_adrs
	.p2align 4,,15
	.globl	__alnk_set_pth_del_adr
	.type	__alnk_set_pth_del_adr, @function
__alnk_set_pth_del_adr:
.LFB89:
	.cfi_startproc
	movq	__init_mdp@GOTPCREL(%rip), %rax
	movslq	%esi, %rsi
	movq	(%rax), %rax
	movq	520(%rax), %rax
	movq	(%rax,%rsi,8), %rax
	movq	40(%rax), %rax
	movq	%rax, (%rdi)
	ret
	.cfi_endproc
.LFE89:
	.size	__alnk_set_pth_del_adr, .-__alnk_set_pth_del_adr
	.p2align 4,,15
	.globl	__alnk_set_tchk_tchg_adr
	.type	__alnk_set_tchk_tchg_adr, @function
__alnk_set_tchk_tchg_adr:
.LFB90:
	.cfi_startproc
	pushq	%rbp
	.cfi_def_cfa_offset 16
	.cfi_offset 6, -16
	pushq	%rbx
	.cfi_def_cfa_offset 24
	.cfi_offset 3, -24
	movslq	%esi, %rsi
	movq	%rdi, %rbp
	subq	$8, %rsp
	.cfi_def_cfa_offset 32
	movq	__init_mdp@GOTPCREL(%rip), %rax
	movq	(%rax), %rax
	movq	528(%rax), %rax
	movq	(%rax,%rsi,8), %rbx
	movzbl	(%rbx), %eax
	andl	$-64, %eax
	cmpb	$-128, %al
	je	.L728
	leaq	.LC1(%rip), %rdi
	movl	$1275, %esi
	call	__misc_terr@PLT
.L728:
	movq	16(%rbx), %rax
	movq	%rax, 0(%rbp)
	addq	$8, %rsp
	.cfi_def_cfa_offset 24
	popq	%rbx
	.cfi_def_cfa_offset 16
	popq	%rbp
	.cfi_def_cfa_offset 8
	ret
	.cfi_endproc
.LFE90:
	.size	__alnk_set_tchk_tchg_adr, .-__alnk_set_tchk_tchg_adr
	.p2align 4,,15
	.globl	__alnk_set_stmt_entptr
	.type	__alnk_set_stmt_entptr, @function
__alnk_set_stmt_entptr:
.LFB91:
	.cfi_startproc
	movq	__init_mdp@GOTPCREL(%rip), %rax
	movslq	%esi, %rsi
	movq	(%rax), %rax
	movq	496(%rax), %rax
	movq	(%rax,%rsi,8), %rax
	movq	%rdi, 64(%rax)
	ret
	.cfi_endproc
.LFE91:
	.size	__alnk_set_stmt_entptr, .-__alnk_set_stmt_entptr
	.p2align 4,,15
	.globl	__alnk_set_npp_entptr
	.type	__alnk_set_npp_entptr, @function
__alnk_set_npp_entptr:
.LFB92:
	.cfi_startproc
	movq	__init_mdp@GOTPCREL(%rip), %rax
	movslq	%esi, %rsi
	movq	(%rax), %rdx
	movq	%rsi, %rax
	salq	$5, %rax
	subq	%rsi, %rax
	movq	192(%rdx), %rcx
	leaq	(%rcx,%rax,8), %rax
	movq	%rdi, 168(%rax)
	ret
	.cfi_endproc
.LFE92:
	.size	__alnk_set_npp_entptr, .-__alnk_set_npp_entptr
	.p2align 4,,15
	.globl	__alnk_set_dcevnt
	.type	__alnk_set_dcevnt, @function
__alnk_set_dcevnt:
.LFB93:
	.cfi_startproc
	movq	__init_mdp@GOTPCREL(%rip), %rax
	movslq	%esi, %rsi
	movslq	%edx, %rdx
	movq	(%rax), %rcx
	movq	%rsi, %rax
	salq	$5, %rax
	subq	%rsi, %rax
	movq	192(%rcx), %rsi
	leaq	(%rsi,%rax,8), %rax
	movq	184(%rax), %rax
	movq	(%rax), %rax
	movq	(%rax,%rdx,8), %rax
	movq	%rax, (%rdi)
	ret
	.cfi_endproc
.LFE93:
	.size	__alnk_set_dcevnt, .-__alnk_set_dcevnt
	.p2align 4,,15
	.globl	__alnk_set_gref
	.type	__alnk_set_gref, @function
__alnk_set_gref:
.LFB94:
	.cfi_startproc
	movq	__init_mdp@GOTPCREL(%rip), %rax
	movslq	%esi, %rsi
	movq	(%rax), %rdx
	movq	%rsi, %rax
	salq	$4, %rax
	addq	%rax, %rsi
	movq	512(%rdx), %rax
	leaq	(%rax,%rsi,8), %rax
	movq	%rax, (%rdi)
	ret
	.cfi_endproc
.LFE94:
	.size	__alnk_set_gref, .-__alnk_set_gref
	.p2align 4,,15
	.globl	__alnk_set_gate
	.type	__alnk_set_gate, @function
__alnk_set_gate:
.LFB95:
	.cfi_startproc
	movq	__init_mdp@GOTPCREL(%rip), %rax
	movslq	%esi, %rsi
	movq	(%rax), %rdx
	leaq	(%rsi,%rsi,2), %rax
	salq	$5, %rax
	addq	152(%rdx), %rax
	movq	%rax, (%rdi)
	ret
	.cfi_endproc
.LFE95:
	.size	__alnk_set_gate, .-__alnk_set_gate
	.p2align 4,,15
	.globl	__alnk_set_conta
	.type	__alnk_set_conta, @function
__alnk_set_conta:
.LFB96:
	.cfi_startproc
	movq	__init_mdp@GOTPCREL(%rip), %rax
	movslq	%esi, %rsi
	leaq	(%rsi,%rsi,4), %rdx
	movq	(%rax), %rax
	leaq	(%rsi,%rdx,2), %rdx
	movq	160(%rax), %rax
	leaq	(%rax,%rdx,8), %rax
	movq	%rax, (%rdi)
	ret
	.cfi_endproc
.LFE96:
	.size	__alnk_set_conta, .-__alnk_set_conta
	.p2align 4,,15
	.globl	__alnk_set_net_addr
	.type	__alnk_set_net_addr, @function
__alnk_set_net_addr:
.LFB97:
	.cfi_startproc
	movq	__init_mdp@GOTPCREL(%rip), %rax
	movslq	%esi, %rsi
	movq	(%rax), %rdx
	movq	%rsi, %rax
	salq	$5, %rax
	subq	%rsi, %rax
	movq	192(%rdx), %rdx
	leaq	(%rdx,%rax,8), %rax
	movq	%rax, (%rdi)
	ret
	.cfi_endproc
.LFE97:
	.size	__alnk_set_net_addr, .-__alnk_set_net_addr
	.p2align 4,,15
	.globl	__alnk_set_task_addr
	.type	__alnk_set_task_addr, @function
__alnk_set_task_addr:
.LFB98:
	.cfi_startproc
	movq	__init_mdp@GOTPCREL(%rip), %rax
	testl	%esi, %esi
	movq	(%rax), %rax
	movq	384(%rax), %rdx
	jle	.L741
	xorl	%eax, %eax
	.p2align 4,,10
	.p2align 3
.L742:
	addl	$1, %eax
	movq	96(%rdx), %rdx
	cmpl	%eax, %esi
	jne	.L742
.L741:
	movq	%rdx, (%rdi)
	ret
	.cfi_endproc
.LFE98:
	.size	__alnk_set_task_addr, .-__alnk_set_task_addr
	.p2align 4,,15
	.globl	__alnk_set_npp_addr
	.type	__alnk_set_npp_addr, @function
__alnk_set_npp_addr:
.LFB99:
	.cfi_startproc
	movq	__init_mdp@GOTPCREL(%rip), %rax
	movslq	%esi, %rsi
	movq	(%rax), %rax
	movq	528(%rax), %rax
	movq	(%rax,%rsi,8), %rax
	movq	%rax, (%rdi)
	ret
	.cfi_endproc
.LFE99:
	.size	__alnk_set_npp_addr, .-__alnk_set_npp_addr
	.p2align 4,,15
	.globl	__alnk_set_xpr_addr
	.type	__alnk_set_xpr_addr, @function
__alnk_set_xpr_addr:
.LFB100:
	.cfi_startproc
	movq	__init_mdp@GOTPCREL(%rip), %rax
	movslq	%esi, %rsi
	movq	(%rax), %rax
	movq	448(%rax), %rax
	movq	(%rax), %rax
	movq	(%rax,%rsi,8), %rax
	movq	%rax, (%rdi)
	ret
	.cfi_endproc
.LFE100:
	.size	__alnk_set_xpr_addr, .-__alnk_set_xpr_addr
	.p2align 4,,15
	.globl	__alnk_ialst_enters
	.type	__alnk_ialst_enters, @function
__alnk_ialst_enters:
.LFB101:
	.cfi_startproc
	movq	__dsgn_mod_ndx@GOTPCREL(%rip), %rax
	movslq	%esi, %rsi
	movq	(%rax), %rax
	movq	(%rax,%rsi,8), %rax
	movq	392(%rax), %rax
	testq	%rax, %rax
	je	.L746
	.p2align 4,,10
	.p2align 3
.L749:
	testb	$1, 1(%rax)
	jne	.L748
	movq	(%rdi), %rdx
	movq	%rdx, 32(%rax)
.L748:
	movq	40(%rax), %rax
	addq	$8, %rdi
	testq	%rax, %rax
	jne	.L749
.L746:
	rep ret
	.cfi_endproc
.LFE101:
	.size	__alnk_ialst_enters, .-__alnk_ialst_enters
	.p2align 4,,15
	.globl	__asl_get_uprel_idp
	.type	__asl_get_uprel_idp, @function
__asl_get_uprel_idp:
.LFB102:
	.cfi_startproc
	movq	__idp@GOTPCREL(%rip), %rax
	movq	(%rax), %rax
	movslq	(%rax), %rdx
	movq	88(%rdi), %rax
	movq	(%rax,%rdx,8), %rax
	movq	8(%rax), %rax
	ret
	.cfi_endproc
.LFE102:
	.size	__asl_get_uprel_idp, .-__asl_get_uprel_idp
	.p2align 4,,15
	.globl	__asl_get_downrel_idp
	.type	__asl_get_downrel_idp, @function
__asl_get_downrel_idp:
.LFB103:
	.cfi_startproc
	subq	$8, %rsp
	.cfi_def_cfa_offset 16
	movq	__idp@GOTPCREL(%rip), %rax
	xorl	%edx, %edx
	movq	(%rax), %rax
	movq	16(%rax), %rsi
	call	__find_unrt_targitp@PLT
	movq	8(%rax), %rax
	addq	$8, %rsp
	.cfi_def_cfa_offset 8
	ret
	.cfi_endproc
.LFE103:
	.size	__asl_get_downrel_idp, .-__asl_get_downrel_idp
	.p2align 4,,15
	.globl	__asl_sched_proc_delay
	.type	__asl_sched_proc_delay, @function
__asl_sched_proc_delay:
.LFB104:
	.cfi_startproc
	pushq	%rbp
	.cfi_def_cfa_offset 16
	.cfi_offset 6, -16
	pushq	%rbx
	.cfi_def_cfa_offset 24
	.cfi_offset 3, -24
	movq	%rdi, %rbp
	movq	%rsi, %rbx
	subq	$8, %rsp
	.cfi_def_cfa_offset 32
	cmpq	$0, 16(%rsi)
	jne	.L768
	movq	$1, 16(%rsi)
.L759:
	movq	16(%rbp), %rax
	movl	(%rax), %esi
	movq	8(%rax), %rdi
	shrl	$13, %esi
	andl	$31, %esi
	call	__get_del@PLT
	movq	__simtime@GOTPCREL(%rip), %rdx
	movq	(%rdx), %rcx
	movq	__cur_thd@GOTPCREL(%rip), %rdx
	movq	(%rdx), %rdx
	addq	%rax, %rcx
	testq	%rax, %rax
	movq	%rcx, 48(%rbx)
	movq	%rbx, 72(%rdx)
	movq	%rdx, 8(%rbx)
	jne	.L760
	movq	__p0_te_hdrp@GOTPCREL(%rip), %rax
	cmpq	$0, (%rax)
	je	.L769
	movq	__p0_te_endp@GOTPCREL(%rip), %rax
	movq	(%rax), %rdx
	movq	%rbx, (%rax)
	movq	__free_event_pnd0_tevp@GOTPCREL(%rip), %rax
	movq	%rbx, 72(%rdx)
	movq	(%rax), %rax
	movq	%rax, 72(%rbx)
.L757:
	addq	$8, %rsp
	.cfi_remember_state
	.cfi_def_cfa_offset 24
	popq	%rbx
	.cfi_def_cfa_offset 16
	popq	%rbp
	.cfi_def_cfa_offset 8
	ret
	.p2align 4,,10
	.p2align 3
.L769:
	.cfi_restore_state
	movq	__p0_te_endp@GOTPCREL(%rip), %rdx
	movq	%rbx, (%rax)
	movq	%rbx, (%rdx)
	addq	$8, %rsp
	.cfi_remember_state
	.cfi_def_cfa_offset 24
	popq	%rbx
	.cfi_def_cfa_offset 16
	popq	%rbp
	.cfi_def_cfa_offset 8
	ret
	.p2align 4,,10
	.p2align 3
.L760:
	.cfi_restore_state
	movq	__cur_tevp@GOTPCREL(%rip), %rax
	movq	$0, 80(%rbx)
	cmpq	(%rax), %rbx
	je	.L763
	movq	$0, 72(%rbx)
.L763:
	movq	%rcx, %rax
	movq	__time_hash@GOTPCREL(%rip), %rdx
	shrq	$32, %rax
	xorq	%rcx, %rax
	imull	$-1640531535, %eax, %eax
	andl	$4095, %eax
	movslq	%eax, %rsi
	movq	(%rdx,%rsi,8), %rsi
	testq	%rsi, %rsi
	je	.L770
	cmpq	8(%rsi), %rcx
	jne	.L765
	movq	24(%rsi), %rax
	movq	%rsi, 40(%rbx)
	testq	%rax, %rax
	je	.L771
	movq	%rbx, 72(%rax)
	movq	%rax, 80(%rbx)
	movq	%rbx, 24(%rsi)
	addq	$8, %rsp
	.cfi_remember_state
	.cfi_def_cfa_offset 24
	popq	%rbx
	.cfi_def_cfa_offset 16
	popq	%rbp
	.cfi_def_cfa_offset 8
	ret
	.p2align 4,,10
	.p2align 3
.L768:
	.cfi_restore_state
	movq	%rsi, %rdi
	call	asl_loc_get_new_event
	movq	%rax, %rbx
	jmp	.L759
	.p2align 4,,10
	.p2align 3
.L765:
	addq	$8, %rsp
	.cfi_remember_state
	.cfi_def_cfa_offset 24
	movq	%rbx, %rdi
	popq	%rbx
	.cfi_def_cfa_offset 16
	popq	%rbp
	.cfi_def_cfa_offset 8
	jmp	asl_loc_conflict_list
	.p2align 4,,10
	.p2align 3
.L770:
	.cfi_restore_state
	movl	%eax, %esi
	movq	%rbx, %rdi
	call	asl_loc_add_new_heap_time
	movq	%rbx, 24(%rax)
	movq	%rbx, 16(%rax)
	movq	$0, 40(%rax)
	movq	$0, 32(%rax)
	jmp	.L757
	.p2align 4,,10
	.p2align 3
.L771:
	movq	%rbx, 24(%rsi)
	movq	%rbx, 16(%rsi)
	jmp	.L757
	.cfi_endproc
.LFE104:
	.size	__asl_sched_proc_delay, .-__asl_sched_proc_delay
	.p2align 4,,15
	.globl	__asl_sched_proc_delay_const
	.type	__asl_sched_proc_delay_const, @function
__asl_sched_proc_delay_const:
.LFB107:
	.cfi_startproc
	pushq	%rbx
	.cfi_def_cfa_offset 16
	.cfi_offset 3, -16
	cmpq	$0, 16(%rdi)
	movq	%rdi, %rbx
	jne	.L781
	movq	$1, 16(%rdi)
.L774:
	movq	__simtime@GOTPCREL(%rip), %rax
	movq	(%rax), %rdx
	movq	__cur_thd@GOTPCREL(%rip), %rax
	addq	64(%rbx), %rdx
	movq	(%rax), %rax
	movq	%rdx, 48(%rbx)
	movq	%rbx, 72(%rax)
	movq	%rax, 8(%rbx)
	movq	__cur_tevp@GOTPCREL(%rip), %rax
	movq	$0, 80(%rbx)
	cmpq	(%rax), %rbx
	je	.L775
	movq	$0, 72(%rbx)
.L775:
	movq	%rdx, %rax
	movq	__time_hash@GOTPCREL(%rip), %rcx
	shrq	$32, %rax
	xorq	%rdx, %rax
	imull	$-1640531535, %eax, %eax
	andl	$4095, %eax
	movslq	%eax, %rsi
	movq	(%rcx,%rsi,8), %rsi
	testq	%rsi, %rsi
	je	.L782
	cmpq	8(%rsi), %rdx
	jne	.L778
	movq	24(%rsi), %rax
	movq	%rsi, 40(%rbx)
	testq	%rax, %rax
	je	.L783
	movq	%rbx, 72(%rax)
	movq	%rax, 80(%rbx)
	movq	%rbx, 24(%rsi)
	popq	%rbx
	.cfi_remember_state
	.cfi_def_cfa_offset 8
	ret
	.p2align 4,,10
	.p2align 3
.L778:
	.cfi_restore_state
	movq	%rbx, %rdi
	popq	%rbx
	.cfi_remember_state
	.cfi_def_cfa_offset 8
	jmp	asl_loc_conflict_list
	.p2align 4,,10
	.p2align 3
.L781:
	.cfi_restore_state
	call	asl_loc_get_new_event
	movq	%rax, %rbx
	jmp	.L774
	.p2align 4,,10
	.p2align 3
.L782:
	movq	%rbx, %rdi
	movl	%eax, %esi
	call	asl_loc_add_new_heap_time
	movq	%rbx, 24(%rax)
	movq	%rbx, 16(%rax)
	movq	$0, 40(%rax)
	movq	$0, 32(%rax)
	popq	%rbx
	.cfi_remember_state
	.cfi_def_cfa_offset 8
	ret
	.p2align 4,,10
	.p2align 3
.L783:
	.cfi_restore_state
	movq	%rbx, 24(%rsi)
	movq	%rbx, 16(%rsi)
	popq	%rbx
	.cfi_def_cfa_offset 8
	ret
	.cfi_endproc
.LFE107:
	.size	__asl_sched_proc_delay_const, .-__asl_sched_proc_delay_const
	.p2align 4,,15
	.globl	__asl_sched_proc_delay_task_const
	.type	__asl_sched_proc_delay_task_const, @function
__asl_sched_proc_delay_task_const:
.LFB108:
	.cfi_startproc
	pushq	%rbx
	.cfi_def_cfa_offset 16
	.cfi_offset 3, -16
	cmpq	$0, 16(%rdi)
	movq	%rdi, %rbx
	jne	.L793
	movq	$1, 16(%rdi)
.L786:
	movq	__simtime@GOTPCREL(%rip), %rax
	movq	(%rax), %rdx
	movq	__cur_thd@GOTPCREL(%rip), %rax
	addq	64(%rbx), %rdx
	movq	(%rax), %rax
	movq	%rdx, 48(%rbx)
	movq	%rbx, 72(%rax)
	movq	%rax, 8(%rbx)
	movq	__cur_tevp@GOTPCREL(%rip), %rax
	movq	$0, 80(%rbx)
	cmpq	(%rax), %rbx
	je	.L787
	movq	$0, 72(%rbx)
.L787:
	movq	%rdx, %rax
	movq	__time_hash@GOTPCREL(%rip), %rcx
	shrq	$32, %rax
	xorq	%rdx, %rax
	imull	$-1640531535, %eax, %eax
	andl	$4095, %eax
	movslq	%eax, %rsi
	movq	(%rcx,%rsi,8), %rsi
	testq	%rsi, %rsi
	je	.L794
	cmpq	8(%rsi), %rdx
	jne	.L790
	movq	24(%rsi), %rax
	movq	%rsi, 40(%rbx)
	testq	%rax, %rax
	je	.L795
	movq	%rbx, 72(%rax)
	movq	%rax, 80(%rbx)
	movq	%rbx, 24(%rsi)
	popq	%rbx
	.cfi_remember_state
	.cfi_def_cfa_offset 8
	ret
	.p2align 4,,10
	.p2align 3
.L790:
	.cfi_restore_state
	movq	%rbx, %rdi
	popq	%rbx
	.cfi_remember_state
	.cfi_def_cfa_offset 8
	jmp	asl_loc_conflict_list
	.p2align 4,,10
	.p2align 3
.L793:
	.cfi_restore_state
	call	asl_loc_get_new_event
	movq	%rax, %rbx
	jmp	.L786
	.p2align 4,,10
	.p2align 3
.L794:
	movq	%rbx, %rdi
	movl	%eax, %esi
	call	asl_loc_add_new_heap_time
	movq	%rbx, 24(%rax)
	movq	%rbx, 16(%rax)
	movq	$0, 40(%rax)
	movq	$0, 32(%rax)
	popq	%rbx
	.cfi_remember_state
	.cfi_def_cfa_offset 8
	ret
	.p2align 4,,10
	.p2align 3
.L795:
	.cfi_restore_state
	movq	%rbx, 24(%rsi)
	movq	%rbx, 16(%rsi)
	popq	%rbx
	.cfi_def_cfa_offset 8
	ret
	.cfi_endproc
.LFE108:
	.size	__asl_sched_proc_delay_task_const, .-__asl_sched_proc_delay_task_const
	.p2align 4,,15
	.globl	__asl_sched_proc_delay_pnd0
	.type	__asl_sched_proc_delay_pnd0, @function
__asl_sched_proc_delay_pnd0:
.LFB109:
	.cfi_startproc
	subq	$8, %rsp
	.cfi_def_cfa_offset 16
	cmpq	$0, 16(%rdi)
	jne	.L802
	movq	$1, 16(%rdi)
.L798:
	movq	__cur_thd@GOTPCREL(%rip), %rax
	movq	(%rax), %rax
	movq	%rdi, 72(%rax)
	movq	%rax, 8(%rdi)
	movq	__p0_te_hdrp@GOTPCREL(%rip), %rax
	cmpq	$0, (%rax)
	je	.L803
	movq	__p0_te_endp@GOTPCREL(%rip), %rax
	movq	(%rax), %rdx
	movq	%rdi, (%rax)
	movq	__free_event_pnd0_tevp@GOTPCREL(%rip), %rax
	movq	%rdi, 72(%rdx)
	movq	(%rax), %rax
	movq	%rax, 72(%rdi)
	addq	$8, %rsp
	.cfi_remember_state
	.cfi_def_cfa_offset 8
	ret
	.p2align 4,,10
	.p2align 3
.L802:
	.cfi_restore_state
	call	asl_loc_get_new_event
	movq	%rax, %rdi
	jmp	.L798
	.p2align 4,,10
	.p2align 3
.L803:
	movq	__p0_te_endp@GOTPCREL(%rip), %rdx
	movq	%rdi, (%rax)
	movq	%rdi, (%rdx)
	addq	$8, %rsp
	.cfi_def_cfa_offset 8
	ret
	.cfi_endproc
.LFE109:
	.size	__asl_sched_proc_delay_pnd0, .-__asl_sched_proc_delay_pnd0
	.set	__asl_sched_proc_delay_pnd0.localalias.25,__asl_sched_proc_delay_pnd0
	.p2align 4,,15
	.globl	__asl_sched_proc_delay_task_pnd0
	.type	__asl_sched_proc_delay_task_pnd0, @function
__asl_sched_proc_delay_task_pnd0:
.LFB519:
	.cfi_startproc
	jmp	__asl_sched_proc_delay_pnd0.localalias.25
	.cfi_endproc
.LFE519:
	.size	__asl_sched_proc_delay_task_pnd0, .-__asl_sched_proc_delay_task_pnd0
	.p2align 4,,15
	.globl	__asl_sched_proc_delay_nt
	.type	__asl_sched_proc_delay_nt, @function
__asl_sched_proc_delay_nt:
.LFB111:
	.cfi_startproc
	pushq	%rbx
	.cfi_def_cfa_offset 16
	.cfi_offset 3, -16
	movq	16(%rdi), %rax
	movq	%rsi, %rbx
	movq	$1, 16(%rsi)
	movl	(%rax), %esi
	movq	8(%rax), %rdi
	shrl	$13, %esi
	andl	$31, %esi
	call	__get_del@PLT
	movq	__simtime@GOTPCREL(%rip), %rdx
	movq	(%rdx), %rcx
	addq	%rax, %rcx
	testq	%rax, %rax
	movq	%rcx, 48(%rbx)
	jne	.L806
	movq	__p0_te_hdrp@GOTPCREL(%rip), %rax
	cmpq	$0, (%rax)
	je	.L814
	movq	__p0_te_endp@GOTPCREL(%rip), %rax
	movq	(%rax), %rdx
	movq	%rbx, (%rax)
	movq	__free_event_pnd0_tevp@GOTPCREL(%rip), %rax
	movq	%rbx, 72(%rdx)
	movq	(%rax), %rax
	movq	%rax, 72(%rbx)
	popq	%rbx
	.cfi_remember_state
	.cfi_def_cfa_offset 8
	ret
	.p2align 4,,10
	.p2align 3
.L814:
	.cfi_restore_state
	movq	__p0_te_endp@GOTPCREL(%rip), %rdx
	movq	%rbx, (%rax)
	movq	%rbx, (%rdx)
	popq	%rbx
	.cfi_remember_state
	.cfi_def_cfa_offset 8
	ret
	.p2align 4,,10
	.p2align 3
.L806:
	.cfi_restore_state
	movq	__cur_tevp@GOTPCREL(%rip), %rax
	movq	%rcx, %rdx
	movq	$0, 80(%rbx)
	cmpq	(%rax), %rbx
	je	.L809
	movq	$0, 72(%rbx)
.L809:
	movq	%rdx, %rax
	movq	__time_hash@GOTPCREL(%rip), %rcx
	shrq	$32, %rax
	xorq	%rdx, %rax
	imull	$-1640531535, %eax, %eax
	andl	$4095, %eax
	movslq	%eax, %rsi
	movq	(%rcx,%rsi,8), %rsi
	testq	%rsi, %rsi
	je	.L815
	cmpq	8(%rsi), %rdx
	jne	.L811
	movq	24(%rsi), %rax
	movq	%rsi, 40(%rbx)
	testq	%rax, %rax
	je	.L816
	movq	%rbx, 72(%rax)
	movq	%rax, 80(%rbx)
	movq	%rbx, 24(%rsi)
	popq	%rbx
	.cfi_remember_state
	.cfi_def_cfa_offset 8
	ret
	.p2align 4,,10
	.p2align 3
.L811:
	.cfi_restore_state
	movq	%rbx, %rdi
	popq	%rbx
	.cfi_remember_state
	.cfi_def_cfa_offset 8
	jmp	asl_loc_conflict_list
	.p2align 4,,10
	.p2align 3
.L815:
	.cfi_restore_state
	movq	%rbx, %rdi
	movl	%eax, %esi
	call	asl_loc_add_new_heap_time
	movq	%rbx, 24(%rax)
	movq	%rbx, 16(%rax)
	movq	$0, 40(%rax)
	movq	$0, 32(%rax)
	popq	%rbx
	.cfi_remember_state
	.cfi_def_cfa_offset 8
	ret
	.p2align 4,,10
	.p2align 3
.L816:
	.cfi_restore_state
	movq	%rbx, 24(%rsi)
	movq	%rbx, 16(%rsi)
	popq	%rbx
	.cfi_def_cfa_offset 8
	ret
	.cfi_endproc
.LFE111:
	.size	__asl_sched_proc_delay_nt, .-__asl_sched_proc_delay_nt
	.p2align 4,,15
	.globl	__asl_sched_proc_delay_const_nt
	.type	__asl_sched_proc_delay_const_nt, @function
__asl_sched_proc_delay_const_nt:
.LFB112:
	.cfi_startproc
	movq	__simtime@GOTPCREL(%rip), %rax
	movq	$1, 16(%rdi)
	movq	$0, 80(%rdi)
	movq	(%rax), %rdx
	movq	__cur_tevp@GOTPCREL(%rip), %rax
	addq	64(%rdi), %rdx
	cmpq	(%rax), %rdi
	movq	%rdx, 48(%rdi)
	je	.L818
	movq	$0, 72(%rdi)
.L818:
	movq	%rdx, %rax
	movq	__time_hash@GOTPCREL(%rip), %rcx
	shrq	$32, %rax
	xorq	%rdx, %rax
	imull	$-1640531535, %eax, %eax
	andl	$4095, %eax
	movslq	%eax, %rsi
	movq	(%rcx,%rsi,8), %rsi
	testq	%rsi, %rsi
	je	.L827
	cmpq	8(%rsi), %rdx
	jne	.L821
	movq	24(%rsi), %rax
	movq	%rsi, 40(%rdi)
	testq	%rax, %rax
	je	.L828
	movq	%rdi, 72(%rax)
	movq	%rax, 80(%rdi)
	movq	%rdi, 24(%rsi)
	ret
	.p2align 4,,10
	.p2align 3
.L821:
	jmp	asl_loc_conflict_list
	.p2align 4,,10
	.p2align 3
.L827:
	pushq	%rbx
	.cfi_def_cfa_offset 16
	.cfi_offset 3, -16
	movl	%eax, %esi
	movq	%rdi, %rbx
	call	asl_loc_add_new_heap_time
	movq	%rbx, 24(%rax)
	movq	%rbx, 16(%rax)
	movq	$0, 40(%rax)
	movq	$0, 32(%rax)
	popq	%rbx
	.cfi_def_cfa_offset 8
	ret
	.p2align 4,,10
	.p2align 3
.L828:
	.cfi_restore 3
	movq	%rdi, 24(%rsi)
	movq	%rdi, 16(%rsi)
	ret
	.cfi_endproc
.LFE112:
	.size	__asl_sched_proc_delay_const_nt, .-__asl_sched_proc_delay_const_nt
	.set	__asl_sched_proc_delay_const_nt.localalias.26,__asl_sched_proc_delay_const_nt
	.p2align 4,,15
	.globl	__asl_sched_proc_delay_pnd0_nt
	.type	__asl_sched_proc_delay_pnd0_nt, @function
__asl_sched_proc_delay_pnd0_nt:
.LFB113:
	.cfi_startproc
	subq	$8, %rsp
	.cfi_def_cfa_offset 16
	cmpq	$0, 16(%rdi)
	jne	.L835
	movq	$1, 16(%rdi)
.L831:
	movq	__simtime@GOTPCREL(%rip), %rax
	movq	(%rax), %rax
	movq	%rax, 48(%rdi)
	movq	__p0_te_hdrp@GOTPCREL(%rip), %rax
	cmpq	$0, (%rax)
	je	.L836
	movq	__p0_te_endp@GOTPCREL(%rip), %rax
	movq	(%rax), %rdx
	movq	%rdi, (%rax)
	movq	__free_event_pnd0_tevp@GOTPCREL(%rip), %rax
	movq	%rdi, 72(%rdx)
	movq	(%rax), %rax
	movq	%rax, 72(%rdi)
	addq	$8, %rsp
	.cfi_remember_state
	.cfi_def_cfa_offset 8
	ret
	.p2align 4,,10
	.p2align 3
.L835:
	.cfi_restore_state
	call	asl_loc_get_new_event
	movq	%rax, %rdi
	jmp	.L831
	.p2align 4,,10
	.p2align 3
.L836:
	movq	__p0_te_endp@GOTPCREL(%rip), %rdx
	movq	%rdi, (%rax)
	movq	%rdi, (%rdx)
	addq	$8, %rsp
	.cfi_def_cfa_offset 8
	ret
	.cfi_endproc
.LFE113:
	.size	__asl_sched_proc_delay_pnd0_nt, .-__asl_sched_proc_delay_pnd0_nt
	.p2align 4,,15
	.globl	__asl_arm_ectrl
	.type	__asl_arm_ectrl, @function
__asl_arm_ectrl:
.LFB114:
	.cfi_startproc
	movq	__cur_thd@GOTPCREL(%rip), %rax
	movq	(%rax), %rax
	movq	%rdi, 72(%rax)
	movq	%rax, 8(%rdi)
	movq	%rsi, 88(%rax)
	ret
	.cfi_endproc
.LFE114:
	.size	__asl_arm_ectrl, .-__asl_arm_ectrl
	.p2align 4,,15
	.globl	__asl_setsav_assoc_tsk
	.type	__asl_setsav_assoc_tsk, @function
__asl_setsav_assoc_tsk:
.LFB115:
	.cfi_startproc
	movq	__cur_thd@GOTPCREL(%rip), %rax
	movq	16(%rdi), %rcx
	movq	(%rax), %rdx
	movq	80(%rdx), %rax
	movq	%rcx, 80(%rdx)
	ret
	.cfi_endproc
.LFE115:
	.size	__asl_setsav_assoc_tsk, .-__asl_setsav_assoc_tsk
	.p2align 4,,15
	.globl	__asl_repl_curth_itp
	.type	__asl_repl_curth_itp, @function
__asl_repl_curth_itp:
.LFB116:
	.cfi_startproc
	movq	__cur_thd@GOTPCREL(%rip), %rax
	movq	__idp@GOTPCREL(%rip), %rdx
	movq	(%rax), %rax
	movq	(%rdx), %rdx
	movq	%rdx, 104(%rax)
	ret
	.cfi_endproc
.LFE116:
	.size	__asl_repl_curth_itp, .-__asl_repl_curth_itp
	.p2align 4,,15
	.globl	__asl_repl_itstk_top
	.type	__asl_repl_itstk_top, @function
__asl_repl_itstk_top:
.LFB117:
	.cfi_startproc
	movq	__cur_thd@GOTPCREL(%rip), %rax
	movq	(%rax), %rax
	movq	104(%rax), %rax
	ret
	.cfi_endproc
.LFE117:
	.size	__asl_repl_itstk_top, .-__asl_repl_itstk_top
	.p2align 4,,15
	.globl	__asl_bld_nb_nodelay_tev
	.type	__asl_bld_nb_nodelay_tev, @function
__asl_bld_nb_nodelay_tev:
.LFB118:
	.cfi_startproc
	cmpq	$0, 16(%rdi)
	jne	.L841
	movq	__nb_te_endp@GOTPCREL(%rip), %rax
	movq	$1, 16(%rdi)
	movq	(%rax), %rdx
	movq	%rdi, (%rax)
	movq	%rdi, 72(%rdx)
.L841:
	rep ret
	.cfi_endproc
.LFE118:
	.size	__asl_bld_nb_nodelay_tev, .-__asl_bld_nb_nodelay_tev
	.p2align 4,,15
	.globl	__asl_sched_nbrhs_scalar_dctrl
	.type	__asl_sched_nbrhs_scalar_dctrl, @function
__asl_sched_nbrhs_scalar_dctrl:
.LFB119:
	.cfi_startproc
	pushq	%rbp
	.cfi_def_cfa_offset 16
	.cfi_offset 6, -16
	pushq	%rbx
	.cfi_def_cfa_offset 24
	.cfi_offset 3, -24
	movq	%rdx, %rbp
	movq	%rdi, %rbx
	subq	$24, %rsp
	.cfi_def_cfa_offset 48
	cmpq	$0, 16(%rdi)
	jne	.L854
	movq	$1, 16(%rdi)
.L845:
	movq	16(%rsi), %rax
	movl	(%rax), %esi
	movq	8(%rax), %rdi
	shrl	$13, %esi
	andl	$31, %esi
	call	__get_del@PLT
	movq	__simtime@GOTPCREL(%rip), %rdx
	movq	(%rdx), %rcx
	movb	%bpl, 3(%rbx)
	addq	%rax, %rcx
	testq	%rax, %rax
	movq	%rcx, 48(%rbx)
	jne	.L846
	movq	__nb_te_endp@GOTPCREL(%rip), %rax
	movq	(%rax), %rdx
	movq	%rbx, (%rax)
	movq	%rbx, 72(%rdx)
.L843:
	addq	$24, %rsp
	.cfi_remember_state
	.cfi_def_cfa_offset 24
	popq	%rbx
	.cfi_def_cfa_offset 16
	popq	%rbp
	.cfi_def_cfa_offset 8
	ret
	.p2align 4,,10
	.p2align 3
.L846:
	.cfi_restore_state
	movq	__last_nb_hp@GOTPCREL(%rip), %rbp
	movq	0(%rbp), %rax
	cmpq	8(%rax), %rcx
	je	.L855
	movq	%rcx, %rax
	movq	__time_hash@GOTPCREL(%rip), %rdx
	shrq	$32, %rax
	xorq	%rcx, %rax
	imull	$-1640531535, %eax, %eax
	andl	$4095, %eax
	movslq	%eax, %rsi
	movq	(%rdx,%rsi,8), %rsi
	testq	%rsi, %rsi
	je	.L856
	cmpq	8(%rsi), %rcx
	jne	.L851
	movq	40(%rsi), %rax
	movq	%rsi, 0(%rbp)
	movq	%rbx, 40(%rsi)
	testq	%rax, %rax
	je	.L857
	movq	%rbx, 72(%rax)
	jmp	.L843
	.p2align 4,,10
	.p2align 3
.L854:
	movq	%rsi, 8(%rsp)
	call	asl_loc_get_new_event_nb
	movq	8(%rsp), %rsi
	movq	%rax, %rbx
	jmp	.L845
	.p2align 4,,10
	.p2align 3
.L851:
	addq	$24, %rsp
	.cfi_remember_state
	.cfi_def_cfa_offset 24
	movq	%rbx, %rdi
	popq	%rbx
	.cfi_def_cfa_offset 16
	popq	%rbp
	.cfi_def_cfa_offset 8
	jmp	asl_loc_nb_conflict_list
	.p2align 4,,10
	.p2align 3
.L855:
	.cfi_restore_state
	movq	40(%rax), %rdx
	movq	%rbx, 40(%rax)
	testq	%rdx, %rdx
	je	.L858
	movq	%rbx, 72(%rdx)
	jmp	.L843
	.p2align 4,,10
	.p2align 3
.L858:
	movq	%rbx, 32(%rax)
	jmp	.L843
	.p2align 4,,10
	.p2align 3
.L856:
	movl	%eax, %esi
	movq	%rbx, %rdi
	call	asl_loc_add_new_heap_time
	movq	%rax, 0(%rbp)
	movq	%rbx, 40(%rax)
	movq	%rbx, 32(%rax)
	movq	$0, 24(%rax)
	movq	$0, 16(%rax)
	jmp	.L843
	.p2align 4,,10
	.p2align 3
.L857:
	movq	%rbx, 32(%rsi)
	jmp	.L843
	.cfi_endproc
.LFE119:
	.size	__asl_sched_nbrhs_scalar_dctrl, .-__asl_sched_nbrhs_scalar_dctrl
	.p2align 4,,15
	.globl	__asl_sched_nbrhs_scalar_dctrl_const
	.type	__asl_sched_nbrhs_scalar_dctrl_const, @function
__asl_sched_nbrhs_scalar_dctrl_const:
.LFB120:
	.cfi_startproc
	pushq	%rbp
	.cfi_def_cfa_offset 16
	.cfi_offset 6, -16
	pushq	%rbx
	.cfi_def_cfa_offset 24
	.cfi_offset 3, -24
	movq	%rdi, %rbx
	subq	$24, %rsp
	.cfi_def_cfa_offset 48
	cmpq	$0, 16(%rdi)
	jne	.L869
	movq	$1, 16(%rdi)
.L861:
	movq	__simtime@GOTPCREL(%rip), %rax
	movq	__last_nb_hp@GOTPCREL(%rip), %rbp
	movq	(%rax), %rax
	movb	%sil, 3(%rbx)
	movq	0(%rbp), %rdx
	addq	64(%rbx), %rax
	cmpq	8(%rdx), %rax
	movq	%rax, 48(%rbx)
	je	.L870
	movq	%rax, %rdx
	movq	__time_hash@GOTPCREL(%rip), %rcx
	shrq	$32, %rdx
	xorq	%rax, %rdx
	imull	$-1640531535, %edx, %edx
	andl	$4095, %edx
	movslq	%edx, %rsi
	movq	(%rcx,%rsi,8), %rsi
	testq	%rsi, %rsi
	je	.L871
	cmpq	8(%rsi), %rax
	jne	.L866
	movq	40(%rsi), %rax
	movq	%rsi, 0(%rbp)
	movq	%rbx, 40(%rsi)
	testq	%rax, %rax
	je	.L872
.L867:
	movq	%rbx, 72(%rax)
.L859:
	addq	$24, %rsp
	.cfi_remember_state
	.cfi_def_cfa_offset 24
	popq	%rbx
	.cfi_def_cfa_offset 16
	popq	%rbp
	.cfi_def_cfa_offset 8
	ret
	.p2align 4,,10
	.p2align 3
.L866:
	.cfi_restore_state
	addq	$24, %rsp
	.cfi_remember_state
	.cfi_def_cfa_offset 24
	movq	%rbx, %rdi
	popq	%rbx
	.cfi_def_cfa_offset 16
	popq	%rbp
	.cfi_def_cfa_offset 8
	jmp	asl_loc_nb_conflict_list
	.p2align 4,,10
	.p2align 3
.L870:
	.cfi_restore_state
	movq	40(%rdx), %rax
	movq	%rbx, 40(%rdx)
	testq	%rax, %rax
	jne	.L867
	movq	%rbx, 32(%rdx)
	addq	$24, %rsp
	.cfi_remember_state
	.cfi_def_cfa_offset 24
	popq	%rbx
	.cfi_def_cfa_offset 16
	popq	%rbp
	.cfi_def_cfa_offset 8
	ret
	.p2align 4,,10
	.p2align 3
.L869:
	.cfi_restore_state
	movq	%rsi, 8(%rsp)
	call	asl_loc_get_new_event_nb
	movq	8(%rsp), %rsi
	movq	%rax, %rbx
	jmp	.L861
	.p2align 4,,10
	.p2align 3
.L871:
	movq	%rbx, %rdi
	movl	%edx, %esi
	call	asl_loc_add_new_heap_time
	movq	%rax, 0(%rbp)
	movq	%rbx, 40(%rax)
	movq	%rbx, 32(%rax)
	movq	$0, 24(%rax)
	movq	$0, 16(%rax)
	addq	$24, %rsp
	.cfi_remember_state
	.cfi_def_cfa_offset 24
	popq	%rbx
	.cfi_def_cfa_offset 16
	popq	%rbp
	.cfi_def_cfa_offset 8
	ret
	.p2align 4,,10
	.p2align 3
.L872:
	.cfi_restore_state
	movq	%rbx, 32(%rsi)
	jmp	.L859
	.cfi_endproc
.LFE120:
	.size	__asl_sched_nbrhs_scalar_dctrl_const, .-__asl_sched_nbrhs_scalar_dctrl_const
	.p2align 4,,15
	.globl	__asl_sched_nbrhs_scalar_dctrl_const_t
	.type	__asl_sched_nbrhs_scalar_dctrl_const_t, @function
__asl_sched_nbrhs_scalar_dctrl_const_t:
.LFB121:
	.cfi_startproc
	pushq	%rbp
	.cfi_def_cfa_offset 16
	.cfi_offset 6, -16
	pushq	%rbx
	.cfi_def_cfa_offset 24
	.cfi_offset 3, -24
	movq	%rdi, %rbx
	subq	$24, %rsp
	.cfi_def_cfa_offset 48
	cmpq	$0, 16(%rdi)
	jne	.L881
	movq	$1, 16(%rdi)
.L875:
	movq	__last_nb_hp@GOTPCREL(%rip), %rbp
	movb	%sil, 3(%rbx)
	movq	0(%rbp), %rax
	testq	%rax, %rax
	je	.L882
	movq	40(%rax), %rdx
	movq	%rbx, 72(%rdx)
	movq	%rbx, 40(%rax)
.L873:
	addq	$24, %rsp
	.cfi_remember_state
	.cfi_def_cfa_offset 24
	popq	%rbx
	.cfi_def_cfa_offset 16
	popq	%rbp
	.cfi_def_cfa_offset 8
	ret
	.p2align 4,,10
	.p2align 3
.L881:
	.cfi_restore_state
	movq	%rsi, 8(%rsp)
	call	asl_loc_get_new_event_nb
	movq	8(%rsp), %rsi
	movq	%rax, %rbx
	jmp	.L875
	.p2align 4,,10
	.p2align 3
.L882:
	movq	__simtime@GOTPCREL(%rip), %rax
	movq	__time_hash@GOTPCREL(%rip), %rcx
	movq	(%rax), %rdx
	addq	64(%rbx), %rdx
	movq	%rdx, %rax
	movq	%rdx, 48(%rbx)
	shrq	$32, %rax
	xorq	%rdx, %rax
	imull	$-1640531535, %eax, %eax
	andl	$4095, %eax
	movslq	%eax, %rsi
	movq	(%rcx,%rsi,8), %rsi
	testq	%rsi, %rsi
	je	.L883
	cmpq	8(%rsi), %rdx
	je	.L884
	addq	$24, %rsp
	.cfi_remember_state
	.cfi_def_cfa_offset 24
	movq	%rbx, %rdi
	popq	%rbx
	.cfi_def_cfa_offset 16
	popq	%rbp
	.cfi_def_cfa_offset 8
	jmp	asl_loc_nb_conflict_list
	.p2align 4,,10
	.p2align 3
.L884:
	.cfi_restore_state
	movq	%rsi, 0(%rbp)
	movq	%rbx, 40(%rsi)
	movq	%rbx, 32(%rsi)
	jmp	.L873
	.p2align 4,,10
	.p2align 3
.L883:
	movl	%eax, %esi
	movq	%rbx, %rdi
	call	asl_loc_add_new_heap_time
	movq	%rax, 0(%rbp)
	movq	%rbx, 40(%rax)
	movq	%rbx, 32(%rax)
	movq	$0, 24(%rax)
	movq	$0, 16(%rax)
	jmp	.L873
	.cfi_endproc
.LFE121:
	.size	__asl_sched_nbrhs_scalar_dctrl_const_t, .-__asl_sched_nbrhs_scalar_dctrl_const_t
	.p2align 4,,15
	.globl	__asl_sched_nbrhs_scalar_dctrl_const_last
	.type	__asl_sched_nbrhs_scalar_dctrl_const_last, @function
__asl_sched_nbrhs_scalar_dctrl_const_last:
.LFB122:
	.cfi_startproc
	subq	$24, %rsp
	.cfi_def_cfa_offset 32
	cmpq	$0, 16(%rdi)
	jne	.L889
	movq	$1, 16(%rdi)
.L887:
	movq	__last_nb_hp@GOTPCREL(%rip), %rax
	movb	%sil, 3(%rdi)
	movq	(%rax), %rax
	movq	40(%rax), %rdx
	movq	%rdi, 72(%rdx)
	movq	%rdi, 40(%rax)
	addq	$24, %rsp
	.cfi_remember_state
	.cfi_def_cfa_offset 8
	ret
	.p2align 4,,10
	.p2align 3
.L889:
	.cfi_restore_state
	movq	%rsi, 8(%rsp)
	call	asl_loc_get_new_event_nb
	movq	8(%rsp), %rsi
	movq	%rax, %rdi
	jmp	.L887
	.cfi_endproc
.LFE122:
	.size	__asl_sched_nbrhs_scalar_dctrl_const_last, .-__asl_sched_nbrhs_scalar_dctrl_const_last
	.p2align 4,,15
	.globl	__asl_sched_nbrhs_nomem_dctrl_const
	.type	__asl_sched_nbrhs_nomem_dctrl_const, @function
__asl_sched_nbrhs_nomem_dctrl_const:
.LFB123:
	.cfi_startproc
	pushq	%rbp
	.cfi_def_cfa_offset 16
	.cfi_offset 6, -16
	pushq	%rbx
	.cfi_def_cfa_offset 24
	.cfi_offset 3, -24
	movq	%rdi, %rbx
	subq	$8, %rsp
	.cfi_def_cfa_offset 32
	cmpq	$0, 16(%rdi)
	jne	.L900
	movq	$1, 16(%rdi)
.L892:
	movq	__last_nb_hp@GOTPCREL(%rip), %rbp
	movq	__simtime@GOTPCREL(%rip), %rax
	movq	0(%rbp), %rdx
	movq	(%rax), %rax
	addq	64(%rbx), %rax
	cmpq	8(%rdx), %rax
	movq	%rax, 48(%rbx)
	je	.L901
	movq	%rax, %rdx
	movq	__time_hash@GOTPCREL(%rip), %rcx
	shrq	$32, %rdx
	xorq	%rax, %rdx
	imull	$-1640531535, %edx, %edx
	andl	$4095, %edx
	movslq	%edx, %rsi
	movq	(%rcx,%rsi,8), %rsi
	testq	%rsi, %rsi
	je	.L902
	cmpq	8(%rsi), %rax
	jne	.L897
	movq	40(%rsi), %rax
	movq	%rsi, 0(%rbp)
	movq	%rbx, 40(%rsi)
	testq	%rax, %rax
	je	.L903
.L898:
	movq	%rbx, 72(%rax)
.L890:
	addq	$8, %rsp
	.cfi_remember_state
	.cfi_def_cfa_offset 24
	popq	%rbx
	.cfi_def_cfa_offset 16
	popq	%rbp
	.cfi_def_cfa_offset 8
	ret
	.p2align 4,,10
	.p2align 3
.L897:
	.cfi_restore_state
	addq	$8, %rsp
	.cfi_remember_state
	.cfi_def_cfa_offset 24
	movq	%rbx, %rdi
	popq	%rbx
	.cfi_def_cfa_offset 16
	popq	%rbp
	.cfi_def_cfa_offset 8
	jmp	asl_loc_nb_conflict_list
	.p2align 4,,10
	.p2align 3
.L901:
	.cfi_restore_state
	movq	40(%rdx), %rax
	movq	%rbx, 40(%rdx)
	testq	%rax, %rax
	jne	.L898
	movq	%rbx, 32(%rdx)
	addq	$8, %rsp
	.cfi_remember_state
	.cfi_def_cfa_offset 24
	popq	%rbx
	.cfi_def_cfa_offset 16
	popq	%rbp
	.cfi_def_cfa_offset 8
	ret
	.p2align 4,,10
	.p2align 3
.L900:
	.cfi_restore_state
	call	asl_loc_get_new_event_nb
	movq	%rax, %rbx
	jmp	.L892
	.p2align 4,,10
	.p2align 3
.L902:
	movq	%rbx, %rdi
	movl	%edx, %esi
	call	asl_loc_add_new_heap_time
	movq	%rax, 0(%rbp)
	movq	%rbx, 40(%rax)
	movq	%rbx, 32(%rax)
	movq	$0, 24(%rax)
	movq	$0, 16(%rax)
	addq	$8, %rsp
	.cfi_remember_state
	.cfi_def_cfa_offset 24
	popq	%rbx
	.cfi_def_cfa_offset 16
	popq	%rbp
	.cfi_def_cfa_offset 8
	ret
	.p2align 4,,10
	.p2align 3
.L903:
	.cfi_restore_state
	movq	%rbx, 32(%rsi)
	jmp	.L890
	.cfi_endproc
.LFE123:
	.size	__asl_sched_nbrhs_nomem_dctrl_const, .-__asl_sched_nbrhs_nomem_dctrl_const
	.p2align 4,,15
	.globl	__asl_sched_nbrhs_nomem_dctrl_const_t
	.type	__asl_sched_nbrhs_nomem_dctrl_const_t, @function
__asl_sched_nbrhs_nomem_dctrl_const_t:
.LFB124:
	.cfi_startproc
	pushq	%rbp
	.cfi_def_cfa_offset 16
	.cfi_offset 6, -16
	pushq	%rbx
	.cfi_def_cfa_offset 24
	.cfi_offset 3, -24
	movq	%rdi, %rbx
	subq	$8, %rsp
	.cfi_def_cfa_offset 32
	cmpq	$0, 16(%rdi)
	jne	.L912
	movq	__last_nb_hp@GOTPCREL(%rip), %rbp
	movq	$1, 16(%rdi)
	movq	0(%rbp), %rax
	testq	%rax, %rax
	je	.L913
.L907:
	movq	40(%rax), %rdx
	movq	%rbx, 72(%rdx)
	movq	%rbx, 40(%rax)
.L904:
	addq	$8, %rsp
	.cfi_remember_state
	.cfi_def_cfa_offset 24
	popq	%rbx
	.cfi_def_cfa_offset 16
	popq	%rbp
	.cfi_def_cfa_offset 8
	ret
	.p2align 4,,10
	.p2align 3
.L912:
	.cfi_restore_state
	call	asl_loc_get_new_event_nb
	movq	__last_nb_hp@GOTPCREL(%rip), %rbp
	movq	%rax, %rbx
	movq	0(%rbp), %rax
	testq	%rax, %rax
	jne	.L907
.L913:
	movq	__simtime@GOTPCREL(%rip), %rax
	movq	__time_hash@GOTPCREL(%rip), %rcx
	movq	(%rax), %rdx
	addq	64(%rbx), %rdx
	movq	%rdx, %rax
	movq	%rdx, 48(%rbx)
	shrq	$32, %rax
	xorq	%rdx, %rax
	imull	$-1640531535, %eax, %eax
	andl	$4095, %eax
	movslq	%eax, %rsi
	movq	(%rcx,%rsi,8), %rsi
	testq	%rsi, %rsi
	je	.L914
	cmpq	8(%rsi), %rdx
	je	.L915
	addq	$8, %rsp
	.cfi_remember_state
	.cfi_def_cfa_offset 24
	movq	%rbx, %rdi
	popq	%rbx
	.cfi_def_cfa_offset 16
	popq	%rbp
	.cfi_def_cfa_offset 8
	jmp	asl_loc_nb_conflict_list
	.p2align 4,,10
	.p2align 3
.L915:
	.cfi_restore_state
	movq	%rsi, 0(%rbp)
	movq	%rbx, 40(%rsi)
	movq	%rbx, 32(%rsi)
	jmp	.L904
	.p2align 4,,10
	.p2align 3
.L914:
	movl	%eax, %esi
	movq	%rbx, %rdi
	call	asl_loc_add_new_heap_time
	movq	%rax, 0(%rbp)
	movq	%rbx, 40(%rax)
	movq	%rbx, 32(%rax)
	movq	$0, 24(%rax)
	movq	$0, 16(%rax)
	jmp	.L904
	.cfi_endproc
.LFE124:
	.size	__asl_sched_nbrhs_nomem_dctrl_const_t, .-__asl_sched_nbrhs_nomem_dctrl_const_t
	.p2align 4,,15
	.globl	__asl_sched_nbrhs_nomem_dctrl_const_last
	.type	__asl_sched_nbrhs_nomem_dctrl_const_last, @function
__asl_sched_nbrhs_nomem_dctrl_const_last:
.LFB125:
	.cfi_startproc
	subq	$8, %rsp
	.cfi_def_cfa_offset 16
	cmpq	$0, 16(%rdi)
	jne	.L920
	movq	$1, 16(%rdi)
.L918:
	movq	__last_nb_hp@GOTPCREL(%rip), %rax
	movq	(%rax), %rax
	movq	40(%rax), %rdx
	movq	%rdi, 72(%rdx)
	movq	%rdi, 40(%rax)
	addq	$8, %rsp
	.cfi_remember_state
	.cfi_def_cfa_offset 8
	ret
	.p2align 4,,10
	.p2align 3
.L920:
	.cfi_restore_state
	call	asl_loc_get_new_event_nb
	movq	%rax, %rdi
	jmp	.L918
	.cfi_endproc
.LFE125:
	.size	__asl_sched_nbrhs_nomem_dctrl_const_last, .-__asl_sched_nbrhs_nomem_dctrl_const_last
	.p2align 4,,15
	.globl	__asl_schd_nb_vardel_rhsconst_dctrl
	.type	__asl_schd_nb_vardel_rhsconst_dctrl, @function
__asl_schd_nb_vardel_rhsconst_dctrl:
.LFB126:
	.cfi_startproc
	pushq	%rbp
	.cfi_def_cfa_offset 16
	.cfi_offset 6, -16
	pushq	%rbx
	.cfi_def_cfa_offset 24
	.cfi_offset 3, -24
	movq	%rdi, %rbp
	movq	%rsi, %rbx
	subq	$8, %rsp
	.cfi_def_cfa_offset 32
	cmpq	$0, 16(%rsi)
	jne	.L932
	movq	$1, 16(%rsi)
.L923:
	movq	16(%rbp), %rax
	movl	(%rax), %esi
	movq	8(%rax), %rdi
	shrl	$13, %esi
	andl	$31, %esi
	call	__get_del@PLT
	movq	__simtime@GOTPCREL(%rip), %rdx
	movq	(%rdx), %rcx
	addq	%rax, %rcx
	testq	%rax, %rax
	movq	%rcx, %rdx
	movq	%rcx, 48(%rbx)
	jne	.L924
	movq	__nb_te_endp@GOTPCREL(%rip), %rax
	movq	(%rax), %rdx
	movq	%rbx, (%rax)
	movq	%rbx, 72(%rdx)
.L921:
	addq	$8, %rsp
	.cfi_remember_state
	.cfi_def_cfa_offset 24
	popq	%rbx
	.cfi_def_cfa_offset 16
	popq	%rbp
	.cfi_def_cfa_offset 8
	ret
	.p2align 4,,10
	.p2align 3
.L924:
	.cfi_restore_state
	movq	__last_nb_hp@GOTPCREL(%rip), %rbp
	movq	0(%rbp), %rax
	cmpq	8(%rax), %rcx
	je	.L933
	movq	%rcx, %rax
	shrq	$32, %rax
	xorq	%rcx, %rax
	movq	__time_hash@GOTPCREL(%rip), %rcx
	imull	$-1640531535, %eax, %eax
	andl	$4095, %eax
	movslq	%eax, %rsi
	movq	(%rcx,%rsi,8), %rsi
	testq	%rsi, %rsi
	je	.L934
	cmpq	8(%rsi), %rdx
	jne	.L929
	movq	40(%rsi), %rax
	movq	%rsi, 0(%rbp)
	movq	%rbx, 40(%rsi)
	testq	%rax, %rax
	je	.L935
	movq	%rbx, 72(%rax)
	jmp	.L921
	.p2align 4,,10
	.p2align 3
.L932:
	movq	%rsi, %rdi
	call	asl_loc_get_new_event_nb
	movq	%rax, %rbx
	jmp	.L923
	.p2align 4,,10
	.p2align 3
.L929:
	addq	$8, %rsp
	.cfi_remember_state
	.cfi_def_cfa_offset 24
	movq	%rbx, %rdi
	popq	%rbx
	.cfi_def_cfa_offset 16
	popq	%rbp
	.cfi_def_cfa_offset 8
	jmp	asl_loc_nb_conflict_list
	.p2align 4,,10
	.p2align 3
.L933:
	.cfi_restore_state
	movq	40(%rax), %rdx
	movq	%rbx, 40(%rax)
	testq	%rdx, %rdx
	je	.L936
	movq	%rbx, 72(%rdx)
	jmp	.L921
	.p2align 4,,10
	.p2align 3
.L936:
	movq	%rbx, 32(%rax)
	jmp	.L921
	.p2align 4,,10
	.p2align 3
.L934:
	movl	%eax, %esi
	movq	%rbx, %rdi
	call	asl_loc_add_new_heap_time
	movq	%rax, 0(%rbp)
	movq	%rbx, 40(%rax)
	movq	%rbx, 32(%rax)
	movq	$0, 24(%rax)
	movq	$0, 16(%rax)
	jmp	.L921
	.p2align 4,,10
	.p2align 3
.L935:
	movq	%rbx, 32(%rsi)
	jmp	.L921
	.cfi_endproc
.LFE126:
	.size	__asl_schd_nb_vardel_rhsconst_dctrl, .-__asl_schd_nb_vardel_rhsconst_dctrl
	.p2align 4,,15
	.globl	__asl_sched_nbrhs_dctrl
	.type	__asl_sched_nbrhs_dctrl, @function
__asl_sched_nbrhs_dctrl:
.LFB127:
	.cfi_startproc
	pushq	%rbp
	.cfi_def_cfa_offset 16
	.cfi_offset 6, -16
	pushq	%rbx
	.cfi_def_cfa_offset 24
	.cfi_offset 3, -24
	movq	%rdi, %rbp
	movq	%rsi, %rbx
	subq	$8, %rsp
	.cfi_def_cfa_offset 32
	cmpq	$0, 16(%rsi)
	jne	.L948
	movq	$1, 16(%rsi)
.L939:
	movq	16(%rbp), %rax
	movl	(%rax), %esi
	movq	8(%rax), %rdi
	shrl	$13, %esi
	andl	$31, %esi
	call	__get_del@PLT
	movq	__simtime@GOTPCREL(%rip), %rdx
	movq	(%rdx), %rcx
	addq	%rax, %rcx
	testq	%rax, %rax
	movq	%rcx, %rdx
	movq	%rcx, 48(%rbx)
	jne	.L940
	movq	__nb_te_endp@GOTPCREL(%rip), %rax
	movq	(%rax), %rdx
	movq	%rbx, (%rax)
	movq	%rbx, 72(%rdx)
.L941:
	movq	8(%rbx), %rax
	addq	$8, %rsp
	.cfi_remember_state
	.cfi_def_cfa_offset 24
	popq	%rbx
	.cfi_def_cfa_offset 16
	popq	%rbp
	.cfi_def_cfa_offset 8
	ret
	.p2align 4,,10
	.p2align 3
.L940:
	.cfi_restore_state
	movq	__last_nb_hp@GOTPCREL(%rip), %rbp
	movq	0(%rbp), %rax
	cmpq	8(%rax), %rcx
	je	.L949
	movq	%rcx, %rax
	shrq	$32, %rax
	xorq	%rcx, %rax
	movq	__time_hash@GOTPCREL(%rip), %rcx
	imull	$-1640531535, %eax, %eax
	andl	$4095, %eax
	movslq	%eax, %rsi
	movq	(%rcx,%rsi,8), %rsi
	testq	%rsi, %rsi
	je	.L950
	cmpq	8(%rsi), %rdx
	jne	.L945
	movq	40(%rsi), %rax
	movq	%rsi, 0(%rbp)
	movq	%rbx, 40(%rsi)
	testq	%rax, %rax
	je	.L951
	movq	%rbx, 72(%rax)
	jmp	.L941
	.p2align 4,,10
	.p2align 3
.L948:
	movq	%rbx, %rdi
	movl	%edx, %esi
	call	asl_loc_get_new_nbmem_event
	movq	%rax, %rbx
	jmp	.L939
	.p2align 4,,10
	.p2align 3
.L945:
	movq	%rbx, %rdi
	call	asl_loc_nb_conflict_list
	movq	8(%rbx), %rax
	addq	$8, %rsp
	.cfi_remember_state
	.cfi_def_cfa_offset 24
	popq	%rbx
	.cfi_def_cfa_offset 16
	popq	%rbp
	.cfi_def_cfa_offset 8
	ret
	.p2align 4,,10
	.p2align 3
.L949:
	.cfi_restore_state
	movq	40(%rax), %rdx
	movq	%rbx, 40(%rax)
	testq	%rdx, %rdx
	je	.L952
	movq	%rbx, 72(%rdx)
	jmp	.L941
	.p2align 4,,10
	.p2align 3
.L952:
	movq	%rbx, 32(%rax)
	jmp	.L941
	.p2align 4,,10
	.p2align 3
.L950:
	movl	%eax, %esi
	movq	%rbx, %rdi
	call	asl_loc_add_new_heap_time
	movq	%rax, 0(%rbp)
	movq	%rbx, 40(%rax)
	movq	%rbx, 32(%rax)
	movq	$0, 24(%rax)
	movq	$0, 16(%rax)
	jmp	.L941
	.p2align 4,,10
	.p2align 3
.L951:
	movq	%rbx, 32(%rsi)
	jmp	.L941
	.cfi_endproc
.LFE127:
	.size	__asl_sched_nbrhs_dctrl, .-__asl_sched_nbrhs_dctrl
	.p2align 4,,15
	.globl	__asl_sched_nbrhs_dctrl_const
	.type	__asl_sched_nbrhs_dctrl_const, @function
__asl_sched_nbrhs_dctrl_const:
.LFB128:
	.cfi_startproc
	pushq	%rbp
	.cfi_def_cfa_offset 16
	.cfi_offset 6, -16
	pushq	%rbx
	.cfi_def_cfa_offset 24
	.cfi_offset 3, -24
	movq	%rdi, %rbx
	subq	$8, %rsp
	.cfi_def_cfa_offset 32
	cmpq	$0, 16(%rdi)
	jne	.L963
	movq	$1, 16(%rdi)
.L955:
	movq	__last_nb_hp@GOTPCREL(%rip), %rbp
	movq	__simtime@GOTPCREL(%rip), %rax
	movq	0(%rbp), %rdx
	movq	(%rax), %rax
	addq	64(%rbx), %rax
	cmpq	8(%rdx), %rax
	movq	%rax, 48(%rbx)
	je	.L964
	movq	%rax, %rdx
	movq	__time_hash@GOTPCREL(%rip), %rcx
	shrq	$32, %rdx
	xorq	%rax, %rdx
	imull	$-1640531535, %edx, %edx
	andl	$4095, %edx
	movslq	%edx, %rsi
	movq	(%rcx,%rsi,8), %rsi
	testq	%rsi, %rsi
	je	.L965
	cmpq	8(%rsi), %rax
	jne	.L960
	movq	40(%rsi), %rax
	movq	%rsi, 0(%rbp)
	movq	%rbx, 40(%rsi)
	testq	%rax, %rax
	je	.L966
.L961:
	movq	%rbx, 72(%rax)
.L958:
	movq	8(%rbx), %rax
	addq	$8, %rsp
	.cfi_remember_state
	.cfi_def_cfa_offset 24
	popq	%rbx
	.cfi_def_cfa_offset 16
	popq	%rbp
	.cfi_def_cfa_offset 8
	ret
	.p2align 4,,10
	.p2align 3
.L960:
	.cfi_restore_state
	movq	%rbx, %rdi
	call	asl_loc_nb_conflict_list
	movq	8(%rbx), %rax
	addq	$8, %rsp
	.cfi_remember_state
	.cfi_def_cfa_offset 24
	popq	%rbx
	.cfi_def_cfa_offset 16
	popq	%rbp
	.cfi_def_cfa_offset 8
	ret
	.p2align 4,,10
	.p2align 3
.L964:
	.cfi_restore_state
	movq	40(%rdx), %rax
	movq	%rbx, 40(%rdx)
	testq	%rax, %rax
	jne	.L961
	movq	%rbx, 32(%rdx)
	movq	8(%rbx), %rax
	addq	$8, %rsp
	.cfi_remember_state
	.cfi_def_cfa_offset 24
	popq	%rbx
	.cfi_def_cfa_offset 16
	popq	%rbp
	.cfi_def_cfa_offset 8
	ret
	.p2align 4,,10
	.p2align 3
.L963:
	.cfi_restore_state
	call	asl_loc_get_new_nbmem_event
	movq	%rax, %rbx
	jmp	.L955
	.p2align 4,,10
	.p2align 3
.L965:
	movq	%rbx, %rdi
	movl	%edx, %esi
	call	asl_loc_add_new_heap_time
	movq	%rax, 0(%rbp)
	movq	%rbx, 40(%rax)
	movq	%rbx, 32(%rax)
	movq	$0, 24(%rax)
	movq	$0, 16(%rax)
	movq	8(%rbx), %rax
	addq	$8, %rsp
	.cfi_remember_state
	.cfi_def_cfa_offset 24
	popq	%rbx
	.cfi_def_cfa_offset 16
	popq	%rbp
	.cfi_def_cfa_offset 8
	ret
	.p2align 4,,10
	.p2align 3
.L966:
	.cfi_restore_state
	movq	%rbx, 32(%rsi)
	jmp	.L958
	.cfi_endproc
.LFE128:
	.size	__asl_sched_nbrhs_dctrl_const, .-__asl_sched_nbrhs_dctrl_const
	.p2align 4,,15
	.globl	__asl_sched_nbrhs_dctrl_const_t
	.type	__asl_sched_nbrhs_dctrl_const_t, @function
__asl_sched_nbrhs_dctrl_const_t:
.LFB129:
	.cfi_startproc
	pushq	%r12
	.cfi_def_cfa_offset 16
	.cfi_offset 12, -16
	pushq	%rbp
	.cfi_def_cfa_offset 24
	.cfi_offset 6, -24
	pushq	%rbx
	.cfi_def_cfa_offset 32
	.cfi_offset 3, -32
	cmpq	$0, 16(%rdi)
	movq	%rdi, %rbx
	jne	.L975
	movq	$1, 16(%rdi)
.L969:
	movq	__last_nb_hp@GOTPCREL(%rip), %rbp
	movq	8(%rbx), %r12
	movq	0(%rbp), %rax
	testq	%rax, %rax
	je	.L976
	movq	40(%rax), %rdx
	movq	%rbx, 72(%rdx)
	movq	%rbx, 40(%rax)
.L967:
	movq	%r12, %rax
	popq	%rbx
	.cfi_remember_state
	.cfi_def_cfa_offset 24
	popq	%rbp
	.cfi_def_cfa_offset 16
	popq	%r12
	.cfi_def_cfa_offset 8
	ret
	.p2align 4,,10
	.p2align 3
.L975:
	.cfi_restore_state
	call	asl_loc_get_new_nbmem_event
	movq	%rax, %rbx
	jmp	.L969
	.p2align 4,,10
	.p2align 3
.L976:
	movq	__simtime@GOTPCREL(%rip), %rax
	movq	__time_hash@GOTPCREL(%rip), %rcx
	movq	(%rax), %rdx
	addq	64(%rbx), %rdx
	movq	%rdx, %rax
	movq	%rdx, 48(%rbx)
	shrq	$32, %rax
	xorq	%rdx, %rax
	imull	$-1640531535, %eax, %eax
	andl	$4095, %eax
	movslq	%eax, %rsi
	movq	(%rcx,%rsi,8), %rsi
	testq	%rsi, %rsi
	je	.L977
	cmpq	8(%rsi), %rdx
	je	.L978
	movq	%rbx, %rdi
	call	asl_loc_nb_conflict_list
	jmp	.L967
	.p2align 4,,10
	.p2align 3
.L978:
	movq	%rsi, 0(%rbp)
	movq	%rbx, 40(%rsi)
	movq	%rbx, 32(%rsi)
	jmp	.L967
	.p2align 4,,10
	.p2align 3
.L977:
	movl	%eax, %esi
	movq	%rbx, %rdi
	call	asl_loc_add_new_heap_time
	movq	%rax, 0(%rbp)
	movq	%rbx, 40(%rax)
	movq	%rbx, 32(%rax)
	movq	$0, 24(%rax)
	movq	$0, 16(%rax)
	jmp	.L967
	.cfi_endproc
.LFE129:
	.size	__asl_sched_nbrhs_dctrl_const_t, .-__asl_sched_nbrhs_dctrl_const_t
	.p2align 4,,15
	.globl	__asl_sched_nbrhs_dctrl_const_last
	.type	__asl_sched_nbrhs_dctrl_const_last, @function
__asl_sched_nbrhs_dctrl_const_last:
.LFB130:
	.cfi_startproc
	subq	$8, %rsp
	.cfi_def_cfa_offset 16
	cmpq	$0, 16(%rdi)
	jne	.L983
	movq	$1, 16(%rdi)
.L981:
	movq	__last_nb_hp@GOTPCREL(%rip), %rax
	movq	(%rax), %rax
	movq	40(%rax), %rdx
	movq	%rdi, 72(%rdx)
	movq	%rdi, 40(%rax)
	movq	8(%rdi), %rax
	addq	$8, %rsp
	.cfi_remember_state
	.cfi_def_cfa_offset 8
	ret
	.p2align 4,,10
	.p2align 3
.L983:
	.cfi_restore_state
	call	asl_loc_get_new_nbmem_event
	movq	%rax, %rdi
	jmp	.L981
	.cfi_endproc
.LFE130:
	.size	__asl_sched_nbrhs_dctrl_const_last, .-__asl_sched_nbrhs_dctrl_const_last
	.p2align 4,,15
	.globl	__asl_sched_nbrhs_varndx_dctrl
	.type	__asl_sched_nbrhs_varndx_dctrl, @function
__asl_sched_nbrhs_varndx_dctrl:
.LFB131:
	.cfi_startproc
	pushq	%r12
	.cfi_def_cfa_offset 16
	.cfi_offset 12, -16
	pushq	%rbp
	.cfi_def_cfa_offset 24
	.cfi_offset 6, -24
	movq	%rdi, %r12
	pushq	%rbx
	.cfi_def_cfa_offset 32
	.cfi_offset 3, -32
	cmpq	$0, 16(%rcx)
	movslq	%esi, %rbp
	movq	%rcx, %rbx
	jne	.L995
	movq	$1, 16(%rcx)
.L986:
	movq	16(%r12), %rax
	movl	(%rax), %esi
	movq	8(%rax), %rdi
	shrl	$13, %esi
	andl	$31, %esi
	call	__get_del@PLT
	movq	__simtime@GOTPCREL(%rip), %rdx
	movq	%rbp, 88(%rbx)
	movq	(%rdx), %rcx
	addq	%rax, %rcx
	testq	%rax, %rax
	movq	%rcx, %rdx
	movq	%rcx, 48(%rbx)
	jne	.L987
	movq	__nb_te_endp@GOTPCREL(%rip), %rax
	movq	(%rax), %rdx
	movq	%rbx, (%rax)
	movq	%rbx, 72(%rdx)
.L988:
	movq	8(%rbx), %rax
	popq	%rbx
	.cfi_remember_state
	.cfi_def_cfa_offset 24
	popq	%rbp
	.cfi_def_cfa_offset 16
	popq	%r12
	.cfi_def_cfa_offset 8
	ret
	.p2align 4,,10
	.p2align 3
.L987:
	.cfi_restore_state
	movq	__last_nb_hp@GOTPCREL(%rip), %rbp
	movq	0(%rbp), %rax
	cmpq	8(%rax), %rcx
	je	.L996
	movq	%rcx, %rax
	shrq	$32, %rax
	xorq	%rcx, %rax
	movq	__time_hash@GOTPCREL(%rip), %rcx
	imull	$-1640531535, %eax, %eax
	andl	$4095, %eax
	movslq	%eax, %rsi
	movq	(%rcx,%rsi,8), %rsi
	testq	%rsi, %rsi
	je	.L997
	cmpq	8(%rsi), %rdx
	jne	.L992
	movq	40(%rsi), %rax
	movq	%rsi, 0(%rbp)
	movq	%rbx, 40(%rsi)
	testq	%rax, %rax
	je	.L998
	movq	%rbx, 72(%rax)
	jmp	.L988
	.p2align 4,,10
	.p2align 3
.L995:
	movl	%edx, %esi
	movq	%rcx, %rdi
	call	asl_loc_get_new_nbmem_event
	movq	%rax, %rbx
	jmp	.L986
	.p2align 4,,10
	.p2align 3
.L992:
	movq	%rbx, %rdi
	call	asl_loc_nb_conflict_list
	movq	8(%rbx), %rax
	popq	%rbx
	.cfi_remember_state
	.cfi_def_cfa_offset 24
	popq	%rbp
	.cfi_def_cfa_offset 16
	popq	%r12
	.cfi_def_cfa_offset 8
	ret
	.p2align 4,,10
	.p2align 3
.L996:
	.cfi_restore_state
	movq	40(%rax), %rdx
	movq	%rbx, 40(%rax)
	testq	%rdx, %rdx
	je	.L999
	movq	%rbx, 72(%rdx)
	jmp	.L988
	.p2align 4,,10
	.p2align 3
.L999:
	movq	%rbx, 32(%rax)
	jmp	.L988
	.p2align 4,,10
	.p2align 3
.L997:
	movl	%eax, %esi
	movq	%rbx, %rdi
	call	asl_loc_add_new_heap_time
	movq	%rax, 0(%rbp)
	movq	%rbx, 40(%rax)
	movq	%rbx, 32(%rax)
	movq	$0, 24(%rax)
	movq	$0, 16(%rax)
	jmp	.L988
	.p2align 4,,10
	.p2align 3
.L998:
	movq	%rbx, 32(%rsi)
	jmp	.L988
	.cfi_endproc
.LFE131:
	.size	__asl_sched_nbrhs_varndx_dctrl, .-__asl_sched_nbrhs_varndx_dctrl
	.p2align 4,,15
	.globl	__asl_sched_nbrhs_varndx_dctrl_const
	.type	__asl_sched_nbrhs_varndx_dctrl_const, @function
__asl_sched_nbrhs_varndx_dctrl_const:
.LFB132:
	.cfi_startproc
	pushq	%rbx
	.cfi_def_cfa_offset 16
	.cfi_offset 3, -16
	movslq	%edi, %rbx
	subq	$16, %rsp
	.cfi_def_cfa_offset 32
	cmpq	$0, 16(%rdx)
	jne	.L1010
	movq	$1, 16(%rdx)
.L1002:
	movq	%rbx, 88(%rdx)
	movq	__last_nb_hp@GOTPCREL(%rip), %rbx
	movq	__simtime@GOTPCREL(%rip), %rax
	movq	(%rbx), %rcx
	movq	(%rax), %rax
	addq	64(%rdx), %rax
	cmpq	8(%rcx), %rax
	movq	%rax, 48(%rdx)
	je	.L1011
	movq	%rax, %rcx
	movq	__time_hash@GOTPCREL(%rip), %rsi
	shrq	$32, %rcx
	xorq	%rax, %rcx
	imull	$-1640531535, %ecx, %ecx
	andl	$4095, %ecx
	movslq	%ecx, %rdi
	movq	(%rsi,%rdi,8), %rsi
	testq	%rsi, %rsi
	je	.L1012
	cmpq	8(%rsi), %rax
	jne	.L1007
	movq	40(%rsi), %rax
	movq	%rsi, (%rbx)
	movq	%rdx, 40(%rsi)
	testq	%rax, %rax
	je	.L1013
.L1008:
	movq	%rdx, 72(%rax)
.L1005:
	movq	8(%rdx), %rax
	addq	$16, %rsp
	.cfi_remember_state
	.cfi_def_cfa_offset 16
	popq	%rbx
	.cfi_def_cfa_offset 8
	ret
	.p2align 4,,10
	.p2align 3
.L1007:
	.cfi_restore_state
	movq	%rdx, %rdi
	movq	%rdx, 8(%rsp)
	call	asl_loc_nb_conflict_list
	movq	8(%rsp), %rdx
	movq	8(%rdx), %rax
	addq	$16, %rsp
	.cfi_remember_state
	.cfi_def_cfa_offset 16
	popq	%rbx
	.cfi_def_cfa_offset 8
	ret
	.p2align 4,,10
	.p2align 3
.L1011:
	.cfi_restore_state
	movq	40(%rcx), %rax
	movq	%rdx, 40(%rcx)
	testq	%rax, %rax
	jne	.L1008
	movq	%rdx, 32(%rcx)
	movq	8(%rdx), %rax
	addq	$16, %rsp
	.cfi_remember_state
	.cfi_def_cfa_offset 16
	popq	%rbx
	.cfi_def_cfa_offset 8
	ret
	.p2align 4,,10
	.p2align 3
.L1010:
	.cfi_restore_state
	movq	%rdx, %rdi
	call	asl_loc_get_new_nbmem_event
	movq	%rax, %rdx
	jmp	.L1002
	.p2align 4,,10
	.p2align 3
.L1012:
	movq	%rdx, %rdi
	movl	%ecx, %esi
	movq	%rdx, 8(%rsp)
	call	asl_loc_add_new_heap_time
	movq	8(%rsp), %rdx
	movq	%rax, (%rbx)
	movq	$0, 24(%rax)
	movq	$0, 16(%rax)
	movq	%rdx, 40(%rax)
	movq	%rdx, 32(%rax)
	movq	8(%rdx), %rax
	addq	$16, %rsp
	.cfi_remember_state
	.cfi_def_cfa_offset 16
	popq	%rbx
	.cfi_def_cfa_offset 8
	ret
	.p2align 4,,10
	.p2align 3
.L1013:
	.cfi_restore_state
	movq	%rdx, 32(%rsi)
	jmp	.L1005
	.cfi_endproc
.LFE132:
	.size	__asl_sched_nbrhs_varndx_dctrl_const, .-__asl_sched_nbrhs_varndx_dctrl_const
	.p2align 4,,15
	.globl	__asl_sched_nbrhs_varndx_dctrl_const_t
	.type	__asl_sched_nbrhs_varndx_dctrl_const_t, @function
__asl_sched_nbrhs_varndx_dctrl_const_t:
.LFB133:
	.cfi_startproc
	pushq	%rbp
	.cfi_def_cfa_offset 16
	.cfi_offset 6, -16
	pushq	%rbx
	.cfi_def_cfa_offset 24
	.cfi_offset 3, -24
	movslq	%edi, %rbx
	subq	$24, %rsp
	.cfi_def_cfa_offset 48
	cmpq	$0, 16(%rdx)
	jne	.L1022
	movq	$1, 16(%rdx)
.L1016:
	movq	%rbx, 88(%rdx)
	movq	__last_nb_hp@GOTPCREL(%rip), %rbx
	movq	8(%rdx), %rbp
	movq	(%rbx), %rax
	testq	%rax, %rax
	je	.L1023
	movq	40(%rax), %rcx
	movq	%rdx, 72(%rcx)
	movq	%rdx, 40(%rax)
.L1014:
	addq	$24, %rsp
	.cfi_remember_state
	.cfi_def_cfa_offset 24
	movq	%rbp, %rax
	popq	%rbx
	.cfi_def_cfa_offset 16
	popq	%rbp
	.cfi_def_cfa_offset 8
	ret
	.p2align 4,,10
	.p2align 3
.L1022:
	.cfi_restore_state
	movq	%rdx, %rdi
	call	asl_loc_get_new_nbmem_event
	movq	%rax, %rdx
	jmp	.L1016
	.p2align 4,,10
	.p2align 3
.L1023:
	movq	__simtime@GOTPCREL(%rip), %rax
	movq	__time_hash@GOTPCREL(%rip), %rsi
	movq	(%rax), %rcx
	addq	64(%rdx), %rcx
	movq	%rcx, %rax
	movq	%rcx, 48(%rdx)
	shrq	$32, %rax
	xorq	%rcx, %rax
	imull	$-1640531535, %eax, %eax
	andl	$4095, %eax
	movslq	%eax, %rdi
	movq	(%rsi,%rdi,8), %rsi
	testq	%rsi, %rsi
	je	.L1024
	cmpq	8(%rsi), %rcx
	je	.L1025
	movq	%rdx, %rdi
	call	asl_loc_nb_conflict_list
	jmp	.L1014
	.p2align 4,,10
	.p2align 3
.L1025:
	movq	%rsi, (%rbx)
	movq	%rdx, 40(%rsi)
	movq	%rdx, 32(%rsi)
	jmp	.L1014
	.p2align 4,,10
	.p2align 3
.L1024:
	movq	%rdx, %rdi
	movl	%eax, %esi
	movq	%rdx, 8(%rsp)
	call	asl_loc_add_new_heap_time
	movq	8(%rsp), %rdx
	movq	%rax, (%rbx)
	movq	$0, 24(%rax)
	movq	$0, 16(%rax)
	movq	%rdx, 40(%rax)
	movq	%rdx, 32(%rax)
	jmp	.L1014
	.cfi_endproc
.LFE133:
	.size	__asl_sched_nbrhs_varndx_dctrl_const_t, .-__asl_sched_nbrhs_varndx_dctrl_const_t
	.p2align 4,,15
	.globl	__asl_sched_nb_pnd0_lhs_varndx
	.type	__asl_sched_nb_pnd0_lhs_varndx, @function
__asl_sched_nb_pnd0_lhs_varndx:
.LFB134:
	.cfi_startproc
	pushq	%rbx
	.cfi_def_cfa_offset 16
	.cfi_offset 3, -16
	cmpq	$0, 16(%rdx)
	movslq	%edi, %rbx
	jne	.L1030
	movq	$1, 16(%rdx)
.L1028:
	movq	__simtime@GOTPCREL(%rip), %rax
	movq	%rbx, 88(%rdx)
	movq	(%rax), %rax
	movq	%rax, 48(%rdx)
	movq	__nb_te_endp@GOTPCREL(%rip), %rax
	movq	(%rax), %rcx
	movq	%rdx, (%rax)
	movq	8(%rdx), %rax
	movq	%rdx, 72(%rcx)
	popq	%rbx
	.cfi_remember_state
	.cfi_def_cfa_offset 8
	ret
	.p2align 4,,10
	.p2align 3
.L1030:
	.cfi_restore_state
	movq	%rdx, %rdi
	call	asl_loc_get_new_nbmem_event
	movq	%rax, %rdx
	jmp	.L1028
	.cfi_endproc
.LFE134:
	.size	__asl_sched_nb_pnd0_lhs_varndx, .-__asl_sched_nb_pnd0_lhs_varndx
	.p2align 4,,15
	.globl	__asl_sched_nbrhs_varndx_sel_dctrl
	.type	__asl_sched_nbrhs_varndx_sel_dctrl, @function
__asl_sched_nbrhs_varndx_sel_dctrl:
.LFB135:
	.cfi_startproc
	pushq	%r13
	.cfi_def_cfa_offset 16
	.cfi_offset 13, -16
	pushq	%r12
	.cfi_def_cfa_offset 24
	.cfi_offset 12, -24
	movq	%rdi, %r13
	pushq	%rbp
	.cfi_def_cfa_offset 32
	.cfi_offset 6, -32
	pushq	%rbx
	.cfi_def_cfa_offset 40
	.cfi_offset 3, -40
	movslq	%esi, %r12
	movq	%rcx, %rbx
	movslq	%r8d, %rbp
	subq	$8, %rsp
	.cfi_def_cfa_offset 48
	cmpq	$0, 16(%rcx)
	jne	.L1042
	movq	$1, 16(%rcx)
.L1033:
	movq	16(%r13), %rax
	movl	(%rax), %esi
	movq	8(%rax), %rdi
	shrl	$13, %esi
	andl	$31, %esi
	call	__get_del@PLT
	movq	__simtime@GOTPCREL(%rip), %rdx
	movq	%r12, 88(%rbx)
	movq	%rbp, 96(%rbx)
	movq	(%rdx), %rcx
	addq	%rax, %rcx
	testq	%rax, %rax
	movq	%rcx, %rdx
	movq	%rcx, 48(%rbx)
	jne	.L1034
	movq	__nb_te_endp@GOTPCREL(%rip), %rax
	movq	(%rax), %rdx
	movq	%rbx, (%rax)
	movq	%rbx, 72(%rdx)
.L1035:
	movq	8(%rbx), %rax
	addq	$8, %rsp
	.cfi_remember_state
	.cfi_def_cfa_offset 40
	popq	%rbx
	.cfi_def_cfa_offset 32
	popq	%rbp
	.cfi_def_cfa_offset 24
	popq	%r12
	.cfi_def_cfa_offset 16
	popq	%r13
	.cfi_def_cfa_offset 8
	ret
	.p2align 4,,10
	.p2align 3
.L1034:
	.cfi_restore_state
	movq	__last_nb_hp@GOTPCREL(%rip), %rbp
	movq	0(%rbp), %rax
	cmpq	8(%rax), %rcx
	je	.L1043
	movq	%rcx, %rax
	shrq	$32, %rax
	xorq	%rcx, %rax
	movq	__time_hash@GOTPCREL(%rip), %rcx
	imull	$-1640531535, %eax, %eax
	andl	$4095, %eax
	movslq	%eax, %rsi
	movq	(%rcx,%rsi,8), %rsi
	testq	%rsi, %rsi
	je	.L1044
	cmpq	8(%rsi), %rdx
	jne	.L1039
	movq	40(%rsi), %rax
	movq	%rsi, 0(%rbp)
	movq	%rbx, 40(%rsi)
	testq	%rax, %rax
	je	.L1045
	movq	%rbx, 72(%rax)
	jmp	.L1035
	.p2align 4,,10
	.p2align 3
.L1042:
	movl	%edx, %esi
	movq	%rcx, %rdi
	call	asl_loc_get_new_nbmem_event
	movq	%rax, %rbx
	jmp	.L1033
	.p2align 4,,10
	.p2align 3
.L1039:
	movq	%rbx, %rdi
	call	asl_loc_nb_conflict_list
	movq	8(%rbx), %rax
	addq	$8, %rsp
	.cfi_remember_state
	.cfi_def_cfa_offset 40
	popq	%rbx
	.cfi_def_cfa_offset 32
	popq	%rbp
	.cfi_def_cfa_offset 24
	popq	%r12
	.cfi_def_cfa_offset 16
	popq	%r13
	.cfi_def_cfa_offset 8
	ret
	.p2align 4,,10
	.p2align 3
.L1043:
	.cfi_restore_state
	movq	40(%rax), %rdx
	movq	%rbx, 40(%rax)
	testq	%rdx, %rdx
	je	.L1046
	movq	%rbx, 72(%rdx)
	jmp	.L1035
	.p2align 4,,10
	.p2align 3
.L1046:
	movq	%rbx, 32(%rax)
	jmp	.L1035
	.p2align 4,,10
	.p2align 3
.L1044:
	movl	%eax, %esi
	movq	%rbx, %rdi
	call	asl_loc_add_new_heap_time
	movq	%rax, 0(%rbp)
	movq	%rbx, 40(%rax)
	movq	%rbx, 32(%rax)
	movq	$0, 24(%rax)
	movq	$0, 16(%rax)
	jmp	.L1035
	.p2align 4,,10
	.p2align 3
.L1045:
	movq	%rbx, 32(%rsi)
	jmp	.L1035
	.cfi_endproc
.LFE135:
	.size	__asl_sched_nbrhs_varndx_sel_dctrl, .-__asl_sched_nbrhs_varndx_sel_dctrl
	.p2align 4,,15
	.globl	__asl_sched_nbrhs_varndx_dctrl_sel_const
	.type	__asl_sched_nbrhs_varndx_dctrl_sel_const, @function
__asl_sched_nbrhs_varndx_dctrl_sel_const:
.LFB136:
	.cfi_startproc
	pushq	%rbx
	.cfi_def_cfa_offset 16
	.cfi_offset 3, -16
	movslq	%edi, %rbx
	subq	$16, %rsp
	.cfi_def_cfa_offset 32
	cmpq	$0, 16(%rdx)
	jne	.L1057
	movq	$1, 16(%rdx)
.L1049:
	movq	%rbx, 88(%rdx)
	movq	__last_nb_hp@GOTPCREL(%rip), %rbx
	movslq	%ecx, %rcx
	movq	__simtime@GOTPCREL(%rip), %rax
	movq	%rcx, 96(%rdx)
	movq	(%rbx), %rcx
	movq	(%rax), %rax
	addq	64(%rdx), %rax
	cmpq	8(%rcx), %rax
	movq	%rax, 48(%rdx)
	je	.L1058
	movq	%rax, %rcx
	movq	__time_hash@GOTPCREL(%rip), %rsi
	shrq	$32, %rcx
	xorq	%rax, %rcx
	imull	$-1640531535, %ecx, %ecx
	andl	$4095, %ecx
	movslq	%ecx, %rdi
	movq	(%rsi,%rdi,8), %rsi
	testq	%rsi, %rsi
	je	.L1059
	cmpq	8(%rsi), %rax
	jne	.L1054
	movq	40(%rsi), %rax
	movq	%rsi, (%rbx)
	movq	%rdx, 40(%rsi)
	testq	%rax, %rax
	je	.L1060
.L1055:
	movq	%rdx, 72(%rax)
.L1052:
	movq	8(%rdx), %rax
	addq	$16, %rsp
	.cfi_remember_state
	.cfi_def_cfa_offset 16
	popq	%rbx
	.cfi_def_cfa_offset 8
	ret
	.p2align 4,,10
	.p2align 3
.L1054:
	.cfi_restore_state
	movq	%rdx, %rdi
	movq	%rdx, 8(%rsp)
	call	asl_loc_nb_conflict_list
	movq	8(%rsp), %rdx
	movq	8(%rdx), %rax
	addq	$16, %rsp
	.cfi_remember_state
	.cfi_def_cfa_offset 16
	popq	%rbx
	.cfi_def_cfa_offset 8
	ret
	.p2align 4,,10
	.p2align 3
.L1058:
	.cfi_restore_state
	movq	40(%rcx), %rax
	movq	%rdx, 40(%rcx)
	testq	%rax, %rax
	jne	.L1055
	movq	%rdx, 32(%rcx)
	movq	8(%rdx), %rax
	addq	$16, %rsp
	.cfi_remember_state
	.cfi_def_cfa_offset 16
	popq	%rbx
	.cfi_def_cfa_offset 8
	ret
	.p2align 4,,10
	.p2align 3
.L1057:
	.cfi_restore_state
	movq	%rdx, %rdi
	movl	%ecx, 8(%rsp)
	call	asl_loc_get_new_nbmem_event
	movl	8(%rsp), %ecx
	movq	%rax, %rdx
	jmp	.L1049
	.p2align 4,,10
	.p2align 3
.L1059:
	movq	%rdx, %rdi
	movl	%ecx, %esi
	movq	%rdx, 8(%rsp)
	call	asl_loc_add_new_heap_time
	movq	8(%rsp), %rdx
	movq	%rax, (%rbx)
	movq	$0, 24(%rax)
	movq	$0, 16(%rax)
	movq	%rdx, 40(%rax)
	movq	%rdx, 32(%rax)
	movq	8(%rdx), %rax
	addq	$16, %rsp
	.cfi_remember_state
	.cfi_def_cfa_offset 16
	popq	%rbx
	.cfi_def_cfa_offset 8
	ret
	.p2align 4,,10
	.p2align 3
.L1060:
	.cfi_restore_state
	movq	%rdx, 32(%rsi)
	jmp	.L1052
	.cfi_endproc
.LFE136:
	.size	__asl_sched_nbrhs_varndx_dctrl_sel_const, .-__asl_sched_nbrhs_varndx_dctrl_sel_const
	.p2align 4,,15
	.globl	__asl_sched_nbrhs_varndx_dctrl_const_sel_t
	.type	__asl_sched_nbrhs_varndx_dctrl_const_sel_t, @function
__asl_sched_nbrhs_varndx_dctrl_const_sel_t:
.LFB137:
	.cfi_startproc
	pushq	%rbp
	.cfi_def_cfa_offset 16
	.cfi_offset 6, -16
	pushq	%rbx
	.cfi_def_cfa_offset 24
	.cfi_offset 3, -24
	movslq	%edi, %rbx
	subq	$24, %rsp
	.cfi_def_cfa_offset 48
	cmpq	$0, 16(%rdx)
	jne	.L1069
	movq	$1, 16(%rdx)
.L1063:
	movq	%rbx, 88(%rdx)
	movq	__last_nb_hp@GOTPCREL(%rip), %rbx
	movslq	%ecx, %rcx
	movq	%rcx, 96(%rdx)
	movq	8(%rdx), %rbp
	movq	(%rbx), %rax
	testq	%rax, %rax
	je	.L1070
	movq	40(%rax), %rcx
	movq	%rdx, 72(%rcx)
	movq	%rdx, 40(%rax)
.L1061:
	addq	$24, %rsp
	.cfi_remember_state
	.cfi_def_cfa_offset 24
	movq	%rbp, %rax
	popq	%rbx
	.cfi_def_cfa_offset 16
	popq	%rbp
	.cfi_def_cfa_offset 8
	ret
	.p2align 4,,10
	.p2align 3
.L1069:
	.cfi_restore_state
	movq	%rdx, %rdi
	movl	%ecx, 8(%rsp)
	call	asl_loc_get_new_nbmem_event
	movl	8(%rsp), %ecx
	movq	%rax, %rdx
	jmp	.L1063
	.p2align 4,,10
	.p2align 3
.L1070:
	movq	__simtime@GOTPCREL(%rip), %rax
	movq	__time_hash@GOTPCREL(%rip), %rsi
	movq	(%rax), %rcx
	addq	64(%rdx), %rcx
	movq	%rcx, %rax
	movq	%rcx, 48(%rdx)
	shrq	$32, %rax
	xorq	%rcx, %rax
	imull	$-1640531535, %eax, %eax
	andl	$4095, %eax
	movslq	%eax, %rdi
	movq	(%rsi,%rdi,8), %rsi
	testq	%rsi, %rsi
	je	.L1071
	cmpq	8(%rsi), %rcx
	je	.L1072
	movq	%rdx, %rdi
	call	asl_loc_nb_conflict_list
	jmp	.L1061
	.p2align 4,,10
	.p2align 3
.L1072:
	movq	%rsi, (%rbx)
	movq	%rdx, 40(%rsi)
	movq	%rdx, 32(%rsi)
	jmp	.L1061
	.p2align 4,,10
	.p2align 3
.L1071:
	movq	%rdx, %rdi
	movl	%eax, %esi
	movq	%rdx, 8(%rsp)
	call	asl_loc_add_new_heap_time
	movq	8(%rsp), %rdx
	movq	%rax, (%rbx)
	movq	$0, 24(%rax)
	movq	$0, 16(%rax)
	movq	%rdx, 40(%rax)
	movq	%rdx, 32(%rax)
	jmp	.L1061
	.cfi_endproc
.LFE137:
	.size	__asl_sched_nbrhs_varndx_dctrl_const_sel_t, .-__asl_sched_nbrhs_varndx_dctrl_const_sel_t
	.p2align 4,,15
	.globl	__asl_sched_nb_pnd0_lhs_varndx_sel
	.type	__asl_sched_nb_pnd0_lhs_varndx_sel, @function
__asl_sched_nb_pnd0_lhs_varndx_sel:
.LFB138:
	.cfi_startproc
	pushq	%rbx
	.cfi_def_cfa_offset 16
	.cfi_offset 3, -16
	movslq	%edi, %rbx
	subq	$16, %rsp
	.cfi_def_cfa_offset 32
	cmpq	$0, 16(%rdx)
	jne	.L1077
	movq	$1, 16(%rdx)
.L1075:
	movq	__simtime@GOTPCREL(%rip), %rax
	movslq	%ecx, %rcx
	movq	%rbx, 88(%rdx)
	movq	%rcx, 96(%rdx)
	movq	(%rax), %rax
	movq	%rax, 48(%rdx)
	movq	__nb_te_endp@GOTPCREL(%rip), %rax
	movq	(%rax), %rcx
	movq	%rdx, (%rax)
	movq	8(%rdx), %rax
	movq	%rdx, 72(%rcx)
	addq	$16, %rsp
	.cfi_remember_state
	.cfi_def_cfa_offset 16
	popq	%rbx
	.cfi_def_cfa_offset 8
	ret
	.p2align 4,,10
	.p2align 3
.L1077:
	.cfi_restore_state
	movq	%rdx, %rdi
	movl	%ecx, 12(%rsp)
	call	asl_loc_get_new_nbmem_event
	movl	12(%rsp), %ecx
	movq	%rax, %rdx
	jmp	.L1075
	.cfi_endproc
.LFE138:
	.size	__asl_sched_nb_pnd0_lhs_varndx_sel, .-__asl_sched_nb_pnd0_lhs_varndx_sel
	.p2align 4,,15
	.globl	__asl_sched_nbrhs_varndx_dctrl_concat
	.type	__asl_sched_nbrhs_varndx_dctrl_concat, @function
__asl_sched_nbrhs_varndx_dctrl_concat:
.LFB139:
	.cfi_startproc
	pushq	%r15
	.cfi_def_cfa_offset 16
	.cfi_offset 15, -16
	pushq	%r14
	.cfi_def_cfa_offset 24
	.cfi_offset 14, -24
	movq	%r9, %r15
	pushq	%r13
	.cfi_def_cfa_offset 32
	.cfi_offset 13, -32
	pushq	%r12
	.cfi_def_cfa_offset 40
	.cfi_offset 12, -40
	movq	%rsi, %r14
	pushq	%rbp
	.cfi_def_cfa_offset 48
	.cfi_offset 6, -48
	pushq	%rbx
	.cfi_def_cfa_offset 56
	.cfi_offset 3, -56
	movq	%rdi, %rbp
	movl	%edx, %r13d
	movl	%ecx, %r12d
	movq	%r8, %rbx
	subq	$24, %rsp
	.cfi_def_cfa_offset 80
	cmpq	$0, 16(%r8)
	jne	.L1089
	movq	$1, 16(%r8)
.L1080:
	movq	16(%rbp), %rax
	movl	(%rax), %esi
	movq	8(%rax), %rdi
	shrl	$13, %esi
	andl	$31, %esi
	call	__get_del@PLT
	movq	%rax, %rcx
	movq	__simtime@GOTPCREL(%rip), %rax
	movl	$56, %edi
	movq	%rcx, %rdx
	movq	%rcx, 8(%rsp)
	addq	(%rax), %rdx
	movq	%rdx, 48(%rbx)
	call	__my_malloc@PLT
	movslq	%r12d, %rdi
	movq	%rax, 8(%rbx)
	movq	%rax, %rbp
	call	__my_malloc@PLT
	movq	8(%rsp), %rcx
	movq	%rax, %rdx
	movq	%rax, 0(%rbp)
	movl	%r12d, 8(%rbp)
	movq	%r14, 24(%rbp)
	movq	%r15, 48(%rbp)
	movl	%r13d, 12(%rbp)
	testq	%rcx, %rcx
	jne	.L1081
	movq	__nb_te_endp@GOTPCREL(%rip), %rax
	movq	(%rax), %rcx
	movq	%rbx, (%rax)
	movq	%rbx, 72(%rcx)
.L1078:
	addq	$24, %rsp
	.cfi_remember_state
	.cfi_def_cfa_offset 56
	movq	%rdx, %rax
	popq	%rbx
	.cfi_def_cfa_offset 48
	popq	%rbp
	.cfi_def_cfa_offset 40
	popq	%r12
	.cfi_def_cfa_offset 32
	popq	%r13
	.cfi_def_cfa_offset 24
	popq	%r14
	.cfi_def_cfa_offset 16
	popq	%r15
	.cfi_def_cfa_offset 8
	ret
	.p2align 4,,10
	.p2align 3
.L1081:
	.cfi_restore_state
	movq	__last_nb_hp@GOTPCREL(%rip), %rbp
	movq	48(%rbx), %rcx
	movq	0(%rbp), %rax
	cmpq	8(%rax), %rcx
	je	.L1090
	movq	%rcx, %rax
	movq	__time_hash@GOTPCREL(%rip), %rsi
	shrq	$32, %rax
	xorq	%rcx, %rax
	imull	$-1640531535, %eax, %eax
	andl	$4095, %eax
	movslq	%eax, %rdi
	movq	(%rsi,%rdi,8), %rsi
	testq	%rsi, %rsi
	je	.L1091
	cmpq	8(%rsi), %rcx
	jne	.L1086
	movq	40(%rsi), %rax
	movq	%rsi, 0(%rbp)
	movq	%rbx, 40(%rsi)
	testq	%rax, %rax
	je	.L1092
	movq	%rbx, 72(%rax)
	jmp	.L1078
	.p2align 4,,10
	.p2align 3
.L1089:
	movq	%r8, %rdi
	call	asl_loc_get_new_event
	movq	%rax, %rbx
	jmp	.L1080
	.p2align 4,,10
	.p2align 3
.L1086:
	movq	%rbx, %rdi
	movq	%rdx, 8(%rsp)
	call	asl_loc_nb_conflict_list
	movq	8(%rsp), %rdx
	jmp	.L1078
	.p2align 4,,10
	.p2align 3
.L1090:
	movq	40(%rax), %rcx
	movq	%rbx, 40(%rax)
	testq	%rcx, %rcx
	je	.L1093
	movq	%rbx, 72(%rcx)
	jmp	.L1078
	.p2align 4,,10
	.p2align 3
.L1093:
	movq	%rbx, 32(%rax)
	jmp	.L1078
	.p2align 4,,10
	.p2align 3
.L1091:
	movl	%eax, %esi
	movq	%rbx, %rdi
	movq	%rdx, 8(%rsp)
	call	asl_loc_add_new_heap_time
	movq	8(%rsp), %rdx
	movq	%rax, 0(%rbp)
	movq	%rbx, 40(%rax)
	movq	%rbx, 32(%rax)
	movq	$0, 24(%rax)
	movq	$0, 16(%rax)
	jmp	.L1078
	.p2align 4,,10
	.p2align 3
.L1092:
	movq	%rbx, 32(%rsi)
	jmp	.L1078
	.cfi_endproc
.LFE139:
	.size	__asl_sched_nbrhs_varndx_dctrl_concat, .-__asl_sched_nbrhs_varndx_dctrl_concat
	.p2align 4,,15
	.globl	__asl_sched_nbrhs_varndx_dctrl_const_concat
	.type	__asl_sched_nbrhs_varndx_dctrl_const_concat, @function
__asl_sched_nbrhs_varndx_dctrl_const_concat:
.LFB140:
	.cfi_startproc
	pushq	%r15
	.cfi_def_cfa_offset 16
	.cfi_offset 15, -16
	pushq	%r14
	.cfi_def_cfa_offset 24
	.cfi_offset 14, -24
	movl	%esi, %r15d
	pushq	%r13
	.cfi_def_cfa_offset 32
	.cfi_offset 13, -32
	pushq	%r12
	.cfi_def_cfa_offset 40
	.cfi_offset 12, -40
	movq	%rdi, %r14
	pushq	%rbp
	.cfi_def_cfa_offset 48
	.cfi_offset 6, -48
	pushq	%rbx
	.cfi_def_cfa_offset 56
	.cfi_offset 3, -56
	movl	%edx, %r12d
	movq	%rcx, %rbx
	movq	%r8, %r13
	subq	$24, %rsp
	.cfi_def_cfa_offset 80
	cmpq	$0, 16(%rcx)
	jne	.L1104
	movq	$1, 16(%rcx)
.L1096:
	movq	__simtime@GOTPCREL(%rip), %rax
	movl	$56, %edi
	movq	(%rax), %rax
	addq	64(%rbx), %rax
	movq	%rax, 48(%rbx)
	call	__my_malloc@PLT
	movslq	%r12d, %rdi
	movq	%rax, %rbp
	movq	%rax, 8(%rbx)
	call	__my_malloc@PLT
	movl	%r12d, 8(%rbp)
	movq	%rax, 0(%rbp)
	movq	%rax, %rcx
	movq	%r14, 24(%rbp)
	movl	%r15d, 12(%rbp)
	movq	%r13, 48(%rbp)
	movq	__last_nb_hp@GOTPCREL(%rip), %rbp
	movq	48(%rbx), %rdx
	movq	0(%rbp), %rax
	cmpq	8(%rax), %rdx
	je	.L1105
	movq	%rdx, %rax
	movq	__time_hash@GOTPCREL(%rip), %rsi
	shrq	$32, %rax
	xorq	%rdx, %rax
	imull	$-1640531535, %eax, %eax
	andl	$4095, %eax
	movslq	%eax, %rdi
	movq	(%rsi,%rdi,8), %rsi
	testq	%rsi, %rsi
	je	.L1106
	cmpq	8(%rsi), %rdx
	jne	.L1101
	movq	40(%rsi), %rax
	movq	%rsi, 0(%rbp)
	movq	%rbx, 40(%rsi)
	testq	%rax, %rax
	je	.L1107
	movq	%rbx, 72(%rax)
.L1094:
	addq	$24, %rsp
	.cfi_remember_state
	.cfi_def_cfa_offset 56
	movq	%rcx, %rax
	popq	%rbx
	.cfi_def_cfa_offset 48
	popq	%rbp
	.cfi_def_cfa_offset 40
	popq	%r12
	.cfi_def_cfa_offset 32
	popq	%r13
	.cfi_def_cfa_offset 24
	popq	%r14
	.cfi_def_cfa_offset 16
	popq	%r15
	.cfi_def_cfa_offset 8
	ret
	.p2align 4,,10
	.p2align 3
.L1101:
	.cfi_restore_state
	movq	%rbx, %rdi
	movq	%rcx, 8(%rsp)
	call	asl_loc_nb_conflict_list
	movq	8(%rsp), %rcx
	jmp	.L1094
	.p2align 4,,10
	.p2align 3
.L1105:
	movq	40(%rax), %rdx
	movq	%rbx, 40(%rax)
	testq	%rdx, %rdx
	je	.L1108
	movq	%rbx, 72(%rdx)
	jmp	.L1094
	.p2align 4,,10
	.p2align 3
.L1104:
	movq	%rcx, %rdi
	call	asl_loc_get_new_event
	movq	%rax, %rbx
	jmp	.L1096
	.p2align 4,,10
	.p2align 3
.L1108:
	movq	%rbx, 32(%rax)
	jmp	.L1094
	.p2align 4,,10
	.p2align 3
.L1106:
	movl	%eax, %esi
	movq	%rbx, %rdi
	movq	%rcx, 8(%rsp)
	call	asl_loc_add_new_heap_time
	movq	8(%rsp), %rcx
	movq	%rax, 0(%rbp)
	movq	%rbx, 40(%rax)
	movq	%rbx, 32(%rax)
	movq	$0, 24(%rax)
	movq	$0, 16(%rax)
	jmp	.L1094
	.p2align 4,,10
	.p2align 3
.L1107:
	movq	%rbx, 32(%rsi)
	jmp	.L1094
	.cfi_endproc
.LFE140:
	.size	__asl_sched_nbrhs_varndx_dctrl_const_concat, .-__asl_sched_nbrhs_varndx_dctrl_const_concat
	.p2align 4,,15
	.globl	__asl_sched_nbrhs_varndx_dctrl_const_concat_t
	.type	__asl_sched_nbrhs_varndx_dctrl_const_concat_t, @function
__asl_sched_nbrhs_varndx_dctrl_const_concat_t:
.LFB141:
	.cfi_startproc
	pushq	%r15
	.cfi_def_cfa_offset 16
	.cfi_offset 15, -16
	pushq	%r14
	.cfi_def_cfa_offset 24
	.cfi_offset 14, -24
	movq	%rdi, %r15
	pushq	%r13
	.cfi_def_cfa_offset 32
	.cfi_offset 13, -32
	pushq	%r12
	.cfi_def_cfa_offset 40
	.cfi_offset 12, -40
	movl	%edx, %r13d
	pushq	%rbp
	.cfi_def_cfa_offset 48
	.cfi_offset 6, -48
	pushq	%rbx
	.cfi_def_cfa_offset 56
	.cfi_offset 3, -56
	movq	%rcx, %rbp
	movq	%r8, %r14
	subq	$24, %rsp
	.cfi_def_cfa_offset 80
	cmpq	$0, 16(%rcx)
	jne	.L1117
	movq	$1, 16(%rcx)
.L1111:
	movl	$56, %edi
	movl	%esi, 12(%rsp)
	call	__my_malloc@PLT
	movslq	%r13d, %rdi
	movq	%rax, 8(%rbp)
	movq	%rax, %rbx
	call	__my_malloc@PLT
	movl	12(%rsp), %esi
	movq	%rax, (%rbx)
	movq	%rax, %r12
	movl	%r13d, 8(%rbx)
	movq	%r15, 24(%rbx)
	movq	%r14, 48(%rbx)
	movl	%esi, 12(%rbx)
	movq	__last_nb_hp@GOTPCREL(%rip), %rbx
	movq	(%rbx), %rax
	testq	%rax, %rax
	je	.L1118
	movq	40(%rax), %rdx
	movq	%rbp, 72(%rdx)
	movq	%rbp, 40(%rax)
.L1109:
	addq	$24, %rsp
	.cfi_remember_state
	.cfi_def_cfa_offset 56
	movq	%r12, %rax
	popq	%rbx
	.cfi_def_cfa_offset 48
	popq	%rbp
	.cfi_def_cfa_offset 40
	popq	%r12
	.cfi_def_cfa_offset 32
	popq	%r13
	.cfi_def_cfa_offset 24
	popq	%r14
	.cfi_def_cfa_offset 16
	popq	%r15
	.cfi_def_cfa_offset 8
	ret
	.p2align 4,,10
	.p2align 3
.L1117:
	.cfi_restore_state
	movq	%rcx, %rdi
	movl	%esi, 12(%rsp)
	call	asl_loc_get_new_event
	movl	12(%rsp), %esi
	movq	%rax, %rbp
	jmp	.L1111
	.p2align 4,,10
	.p2align 3
.L1118:
	movq	__simtime@GOTPCREL(%rip), %rax
	movq	__time_hash@GOTPCREL(%rip), %rcx
	movq	(%rax), %rdx
	addq	64(%rbp), %rdx
	movq	%rdx, %rax
	movq	%rdx, 48(%rbp)
	shrq	$32, %rax
	xorq	%rdx, %rax
	imull	$-1640531535, %eax, %eax
	andl	$4095, %eax
	movslq	%eax, %rsi
	movq	(%rcx,%rsi,8), %rsi
	testq	%rsi, %rsi
	je	.L1119
	cmpq	8(%rsi), %rdx
	je	.L1120
	movq	%rbp, %rdi
	call	asl_loc_nb_conflict_list
	jmp	.L1109
	.p2align 4,,10
	.p2align 3
.L1120:
	movq	%rsi, (%rbx)
	movq	%rbp, 40(%rsi)
	movq	%rbp, 32(%rsi)
	jmp	.L1109
	.p2align 4,,10
	.p2align 3
.L1119:
	movl	%eax, %esi
	movq	%rbp, %rdi
	call	asl_loc_add_new_heap_time
	movq	%rax, (%rbx)
	movq	%rbp, 40(%rax)
	movq	%rbp, 32(%rax)
	movq	$0, 24(%rax)
	movq	$0, 16(%rax)
	jmp	.L1109
	.cfi_endproc
.LFE141:
	.size	__asl_sched_nbrhs_varndx_dctrl_const_concat_t, .-__asl_sched_nbrhs_varndx_dctrl_const_concat_t
	.p2align 4,,15
	.globl	__asl_sched_nb_pnd0_lhs_varndx_concat
	.type	__asl_sched_nb_pnd0_lhs_varndx_concat, @function
__asl_sched_nb_pnd0_lhs_varndx_concat:
.LFB142:
	.cfi_startproc
	pushq	%r15
	.cfi_def_cfa_offset 16
	.cfi_offset 15, -16
	pushq	%r14
	.cfi_def_cfa_offset 24
	.cfi_offset 14, -24
	movq	%r8, %r15
	pushq	%r13
	.cfi_def_cfa_offset 32
	.cfi_offset 13, -32
	pushq	%r12
	.cfi_def_cfa_offset 40
	.cfi_offset 12, -40
	movq	%rdi, %r14
	pushq	%rbp
	.cfi_def_cfa_offset 48
	.cfi_offset 6, -48
	pushq	%rbx
	.cfi_def_cfa_offset 56
	.cfi_offset 3, -56
	movl	%esi, %r13d
	movl	%edx, %r12d
	movq	%rcx, %rbx
	subq	$8, %rsp
	.cfi_def_cfa_offset 64
	cmpq	$0, 16(%rcx)
	jne	.L1125
	movq	$1, 16(%rcx)
.L1123:
	movq	__simtime@GOTPCREL(%rip), %rax
	movl	$56, %edi
	movq	(%rax), %rax
	movq	%rax, 48(%rbx)
	call	__my_malloc@PLT
	movslq	%r12d, %rdi
	movq	%rax, 8(%rbx)
	movq	%rax, %rbp
	call	__my_malloc@PLT
	movq	__nb_te_endp@GOTPCREL(%rip), %rdx
	movq	%rax, 0(%rbp)
	movl	%r12d, 8(%rbp)
	movq	%r14, 24(%rbp)
	movq	%r15, 48(%rbp)
	movl	%r13d, 12(%rbp)
	movq	(%rdx), %rcx
	movq	%rbx, (%rdx)
	movq	%rbx, 72(%rcx)
	addq	$8, %rsp
	.cfi_remember_state
	.cfi_def_cfa_offset 56
	popq	%rbx
	.cfi_def_cfa_offset 48
	popq	%rbp
	.cfi_def_cfa_offset 40
	popq	%r12
	.cfi_def_cfa_offset 32
	popq	%r13
	.cfi_def_cfa_offset 24
	popq	%r14
	.cfi_def_cfa_offset 16
	popq	%r15
	.cfi_def_cfa_offset 8
	ret
	.p2align 4,,10
	.p2align 3
.L1125:
	.cfi_restore_state
	movq	%rcx, %rdi
	call	asl_loc_get_new_event
	movq	%rax, %rbx
	jmp	.L1123
	.cfi_endproc
.LFE142:
	.size	__asl_sched_nb_pnd0_lhs_varndx_concat, .-__asl_sched_nb_pnd0_lhs_varndx_concat
	.p2align 4,,15
	.globl	__asl_arm_nb_ectrl
	.type	__asl_arm_nb_ectrl, @function
__asl_arm_nb_ectrl:
.LFB143:
	.cfi_startproc
	cmpq	$0, 16(%rsi)
	jne	.L1131
	movq	16(%rdi), %rax
	orb	$2, (%rsi)
	movq	$1, 16(%rsi)
	movq	24(%rax), %rdx
	movq	__idp@GOTPCREL(%rip), %rax
	movq	(%rax), %rax
	leaq	(%rax,%rdx,8), %rdx
	movq	(%rdx), %rax
	testq	%rax, %rax
	jne	.L1130
	movq	%rsi, (%rdx)
.L1131:
	movq	8(%rsi), %rax
	ret
	.p2align 4,,10
	.p2align 3
.L1132:
	movq	%rdx, %rax
.L1130:
	movq	72(%rax), %rdx
	testq	%rdx, %rdx
	jne	.L1132
	movq	%rsi, 72(%rax)
	movq	%rax, 80(%rsi)
	movq	$0, 72(%rsi)
	movq	8(%rsi), %rax
	ret
	.cfi_endproc
.LFE143:
	.size	__asl_arm_nb_ectrl, .-__asl_arm_nb_ectrl
	.p2align 4,,15
	.globl	__asl_arm_nb_varndx_ectrl
	.type	__asl_arm_nb_varndx_ectrl, @function
__asl_arm_nb_varndx_ectrl:
.LFB144:
	.cfi_startproc
	movq	__simtime@GOTPCREL(%rip), %rax
	cmpq	$0, 16(%rsi)
	movslq	%edx, %rdx
	movq	%rdx, 88(%rsi)
	movq	(%rax), %rax
	movq	%rax, 48(%rsi)
	jne	.L1138
	movq	16(%rdi), %rax
	movq	$1, 16(%rsi)
	movq	24(%rax), %rdx
	movq	__idp@GOTPCREL(%rip), %rax
	movq	(%rax), %rax
	leaq	(%rax,%rdx,8), %rdx
	movq	(%rdx), %rax
	testq	%rax, %rax
	jne	.L1137
	movq	%rsi, (%rdx)
.L1138:
	movq	8(%rsi), %rax
	ret
	.p2align 4,,10
	.p2align 3
.L1139:
	movq	%rdx, %rax
.L1137:
	movq	72(%rax), %rdx
	testq	%rdx, %rdx
	jne	.L1139
	movq	%rsi, 72(%rax)
	movq	%rax, 80(%rsi)
	movq	$0, 72(%rsi)
	movq	8(%rsi), %rax
	ret
	.cfi_endproc
.LFE144:
	.size	__asl_arm_nb_varndx_ectrl, .-__asl_arm_nb_varndx_ectrl
	.p2align 4,,15
	.globl	__asl_loc_get_new_thread_event
	.type	__asl_loc_get_new_thread_event, @function
__asl_loc_get_new_thread_event:
.LFB149:
	.cfi_startproc
	jmp	asl_loc_get_new_thread_event
	.cfi_endproc
.LFE149:
	.size	__asl_loc_get_new_thread_event, .-__asl_loc_get_new_thread_event
	.p2align 4,,15
	.globl	__asl_loc_get_new_event
	.type	__asl_loc_get_new_event, @function
__asl_loc_get_new_event:
.LFB150:
	.cfi_startproc
	jmp	asl_loc_get_new_event
	.cfi_endproc
.LFE150:
	.size	__asl_loc_get_new_event, .-__asl_loc_get_new_event
	.p2align 4,,15
	.globl	__asl_sched_namblk_thd
	.type	__asl_sched_namblk_thd, @function
__asl_sched_namblk_thd:
.LFB151:
	.cfi_startproc
	pushq	%rbp
	.cfi_def_cfa_offset 16
	.cfi_offset 6, -16
	pushq	%rbx
	.cfi_def_cfa_offset 24
	.cfi_offset 3, -24
	movq	%rdi, %rcx
	subq	$8, %rsp
	.cfi_def_cfa_offset 32
	movq	__cur_thd@GOTPCREL(%rip), %rbx
	movq	16(%rdi), %rdi
	movq	(%rbx), %rdx
	movl	(%rdx), %eax
	movl	12(%rdx), %ebp
	andl	$-1073741761, %eax
	orl	$64, %eax
	movl	%eax, (%rdx)
	movq	56(%rcx), %rax
	movq	%rax, 24(%rdx)
	call	__setup_tsk_thread@PLT
	movq	(%rbx), %rdx
	movq	%rax, (%rbx)
	movq	%rdx, 32(%rax)
	movq	%rax, 56(%rdx)
	movq	__idp@GOTPCREL(%rip), %rdx
	movl	%ebp, 12(%rax)
	movq	(%rdx), %rdx
	movq	%rdx, 104(%rax)
	addq	$8, %rsp
	.cfi_def_cfa_offset 24
	popq	%rbx
	.cfi_def_cfa_offset 16
	popq	%rbp
	.cfi_def_cfa_offset 8
	ret
	.cfi_endproc
.LFE151:
	.size	__asl_sched_namblk_thd, .-__asl_sched_namblk_thd
	.p2align 4,,15
	.globl	__asl_exec_stsk
	.type	__asl_exec_stsk, @function
__asl_exec_stsk:
.LFB154:
	.cfi_startproc
	pushq	%r13
	.cfi_def_cfa_offset 16
	.cfi_offset 13, -16
	pushq	%r12
	.cfi_def_cfa_offset 24
	.cfi_offset 12, -24
	pushq	%rbp
	.cfi_def_cfa_offset 32
	.cfi_offset 6, -32
	pushq	%rbx
	.cfi_def_cfa_offset 40
	.cfi_offset 3, -40
	subq	$8, %rsp
	.cfi_def_cfa_offset 48
	movq	__slin_cnt@GOTPCREL(%rip), %rbp
	movl	8(%rdi), %edx
	movq	__sfnam_ind@GOTPCREL(%rip), %rbx
	movq	16(%rdi), %rax
	movl	0(%rbp), %r13d
	movl	%edx, 0(%rbp)
	movzwl	4(%rdi), %edx
	movl	(%rbx), %r12d
	movq	16(%rax), %rsi
	movl	%edx, (%rbx)
	leaq	16(%rdi), %rdx
	call	__exec_stsk@PLT
	movl	%r13d, 0(%rbp)
	movl	%r12d, (%rbx)
	addq	$8, %rsp
	.cfi_def_cfa_offset 40
	popq	%rbx
	.cfi_def_cfa_offset 32
	popq	%rbp
	.cfi_def_cfa_offset 24
	popq	%r12
	.cfi_def_cfa_offset 16
	popq	%r13
	.cfi_def_cfa_offset 8
	ret
	.cfi_endproc
.LFE154:
	.size	__asl_exec_stsk, .-__asl_exec_stsk
	.p2align 4,,15
	.globl	__asl_new_auto_idp_area
	.type	__asl_new_auto_idp_area, @function
__asl_new_auto_idp_area:
.LFB155:
	.cfi_startproc
	pushq	%rbp
	.cfi_def_cfa_offset 16
	.cfi_offset 6, -16
	pushq	%rbx
	.cfi_def_cfa_offset 24
	.cfi_offset 3, -24
	movq	%rdi, %rbp
	subq	$8, %rsp
	.cfi_def_cfa_offset 32
	movq	8(%rdi), %rax
	movq	416(%rax), %rbx
	salq	$3, %rbx
	movq	%rbx, %rdi
	call	__my_malloc@PLT
	movq	%rbx, %rdx
	movq	%rbp, %rsi
	movq	%rax, %rdi
	call	memcpy@PLT
	addq	$8, %rsp
	.cfi_def_cfa_offset 24
	popq	%rbx
	.cfi_def_cfa_offset 16
	popq	%rbp
	.cfi_def_cfa_offset 8
	ret
	.cfi_endproc
.LFE155:
	.size	__asl_new_auto_idp_area, .-__asl_new_auto_idp_area
	.p2align 4,,15
	.globl	__asl_cp_auto_idp_area_func
	.type	__asl_cp_auto_idp_area_func, @function
__asl_cp_auto_idp_area_func:
.LFB156:
	.cfi_startproc
	pushq	%rbp
	.cfi_def_cfa_offset 16
	.cfi_offset 6, -16
	pushq	%rbx
	.cfi_def_cfa_offset 24
	.cfi_offset 3, -24
	movq	%rsi, %rbx
	subq	$8, %rsp
	.cfi_def_cfa_offset 32
	movq	8(%rsi), %rbp
	movq	432(%rbp), %rax
	leaq	0(,%rax,8), %rdx
	call	memcpy@PLT
	movq	416(%rbp), %rsi
	addq	$8, %rsp
	.cfi_def_cfa_offset 24
	movq	%rbx, %rdi
	popq	%rbx
	.cfi_def_cfa_offset 16
	popq	%rbp
	.cfi_def_cfa_offset 8
	jmp	__my_free@PLT
	.cfi_endproc
.LFE156:
	.size	__asl_cp_auto_idp_area_func, .-__asl_cp_auto_idp_area_func
	.section	.rodata.str1.1
.LC14:
	.string	"\n"
	.text
	.p2align 4,,15
	.globl	__asl_exec_display
	.type	__asl_exec_display, @function
__asl_exec_display:
.LFB157:
	.cfi_startproc
	subq	$8, %rsp
	.cfi_def_cfa_offset 16
	movq	24(%rdi), %rdi
	movl	$3, %esi
	call	__do_disp@PLT
	leaq	.LC14(%rip), %rdi
	xorl	%eax, %eax
	addq	$8, %rsp
	.cfi_def_cfa_offset 8
	jmp	__cvsim_msg@PLT
	.cfi_endproc
.LFE157:
	.size	__asl_exec_display, .-__asl_exec_display
	.p2align 4,,15
	.globl	__asl_reg_qcaf_inhibit
	.type	__asl_reg_qcaf_inhibit, @function
__asl_reg_qcaf_inhibit:
.LFB158:
	.cfi_startproc
	movq	__idp@GOTPCREL(%rip), %rax
	movq	120(%rdi), %rcx
	movq	(%rax), %rax
	movq	(%rax), %rdx
	xorl	%eax, %eax
	addl	%edx, %edx
	movslq	%edx, %rdx
	leaq	(%rdx,%rdx,4), %rsi
	testb	$1, (%rcx,%rsi,8)
	jne	.L1152
	leaq	5(%rdx,%rdx,4), %rax
	movzbl	(%rcx,%rax,8), %eax
	notl	%eax
	andl	$1, %eax
.L1152:
	rep ret
	.cfi_endproc
.LFE158:
	.size	__asl_reg_qcaf_inhibit, .-__asl_reg_qcaf_inhibit
	.p2align 4,,15
	.globl	__asl_scalar_wire_inhibit
	.type	__asl_scalar_wire_inhibit, @function
__asl_scalar_wire_inhibit:
.LFB159:
	.cfi_startproc
	movq	__idp@GOTPCREL(%rip), %rax
	movq	120(%rdi), %rdx
	movq	(%rax), %rax
	movslq	(%rax), %rax
	leaq	(%rax,%rax,4), %rax
	leaq	(%rdx,%rax,8), %rax
	movzbl	(%rax), %eax
	notl	%eax
	andl	$1, %eax
	ret
	.cfi_endproc
.LFE159:
	.size	__asl_scalar_wire_inhibit, .-__asl_scalar_wire_inhibit
	.p2align 4,,15
	.globl	__asl_bsel_wirfrc_inhibit
	.type	__asl_bsel_wirfrc_inhibit, @function
__asl_bsel_wirfrc_inhibit:
.LFB160:
	.cfi_startproc
	movq	__idp@GOTPCREL(%rip), %rax
	movq	(%rax), %rdx
	movl	8(%rdi), %eax
	imull	(%rdx), %eax
	movq	120(%rdi), %rdx
	addl	%eax, %esi
	movslq	%esi, %rsi
	leaq	(%rsi,%rsi,4), %rax
	leaq	(%rdx,%rax,8), %rax
	movzbl	(%rax), %eax
	notl	%eax
	andl	$1, %eax
	ret
	.cfi_endproc
.LFE160:
	.size	__asl_bsel_wirfrc_inhibit, .-__asl_bsel_wirfrc_inhibit
	.p2align 4,,15
	.globl	__asl_stren_correct_frc
	.type	__asl_stren_correct_frc, @function
__asl_stren_correct_frc:
.LFB161:
	.cfi_startproc
	movq	__idp@GOTPCREL(%rip), %rax
	movl	8(%rsi), %edx
	movq	32(%rsi), %rcx
	movq	(%rax), %r9
	leaq	0(,%rcx,8), %r8
	movl	(%r9), %eax
	imull	%edx, %eax
	testl	%edx, %edx
	jle	.L1161
	cltq
	movl	$1, %edx
	addq	%r8, %r9
	leaq	(%rax,%rax,4), %rcx
	xorl	%eax, %eax
	salq	$3, %rcx
	jmp	.L1160
	.p2align 4,,10
	.p2align 3
.L1165:
	movzbl	-1(%r9,%rdx), %r8d
	movb	%r8b, -1(%rdi,%rdx)
.L1159:
	movl	%edx, %r8d
	addq	$40, %rcx
	addq	$1, %rdx
	cmpl	%r8d, 8(%rsi)
	jle	.L1164
.L1160:
	movq	120(%rsi), %r8
	testb	$1, (%r8,%rcx)
	jne	.L1165
	movl	$1, %eax
	jmp	.L1159
	.p2align 4,,10
	.p2align 3
.L1164:
	rep ret
	.p2align 4,,10
	.p2align 3
.L1161:
	xorl	%eax, %eax
	ret
	.cfi_endproc
.LFE161:
	.size	__asl_stren_correct_frc, .-__asl_stren_correct_frc
	.p2align 4,,15
	.globl	__asl_correct_frc
	.type	__asl_correct_frc, @function
__asl_correct_frc:
.LFB162:
	.cfi_startproc
	pushq	%r15
	.cfi_def_cfa_offset 16
	.cfi_offset 15, -16
	pushq	%r14
	.cfi_def_cfa_offset 24
	.cfi_offset 14, -24
	pushq	%r13
	.cfi_def_cfa_offset 32
	.cfi_offset 13, -32
	pushq	%r12
	.cfi_def_cfa_offset 40
	.cfi_offset 12, -40
	pushq	%rbp
	.cfi_def_cfa_offset 48
	.cfi_offset 6, -48
	pushq	%rbx
	.cfi_def_cfa_offset 56
	.cfi_offset 3, -56
	movq	%rsi, %rbp
	movq	%rdi, %rbx
	subq	$8, %rsp
	.cfi_def_cfa_offset 64
	movq	__xspi@GOTPCREL(%rip), %r14
	movq	__maxxnest@GOTPCREL(%rip), %r13
	movl	(%r14), %eax
	addl	$1, %eax
	cmpl	0(%r13), %eax
	movl	%eax, (%r14)
	jge	.L1180
.L1167:
	movq	__xstk@GOTPCREL(%rip), %r12
	cltq
	movq	(%r12), %rdx
	movq	(%rdx,%rax,8), %r15
	movl	8(%rbp), %eax
	leal	63(%rax), %esi
	sarl	$6, %esi
	cmpl	4(%r15), %esi
	jg	.L1181
.L1168:
	movq	8(%r15), %rdi
	movslq	%esi, %rsi
	movl	%eax, (%r15)
	leaq	(%rdi,%rsi,8), %rdx
	movq	%rbp, %rsi
	movq	%rdx, 16(%r15)
	call	__bld_forcedbits_mask@PLT
	movl	8(%rbp), %eax
	movq	16(%r15), %rdi
	xorl	%esi, %esi
	leal	63(%rax), %edx
	sarl	$6, %edx
	sall	$3, %edx
	movslq	%edx, %rdx
	call	memset@PLT
	movl	8(%rbp), %esi
	movq	8(%r15), %rdi
	call	__vval_is1@PLT
	testl	%eax, %eax
	jne	.L1182
	movl	8(%rbp), %esi
	movq	8(%r15), %rdi
	cmpl	$64, %esi
	jg	.L1171
	cmpq	$0, (%rdi)
	sete	%dl
.L1172:
	testb	%dl, %dl
	movl	(%r14), %eax
	jne	.L1183
	addl	$1, %eax
	cmpl	0(%r13), %eax
	movl	%eax, (%r14)
	jge	.L1184
.L1174:
	movq	(%r12), %rdx
	cltq
	movq	(%rdx,%rax,8), %r12
	movl	8(%rbp), %eax
	leal	63(%rax), %esi
	sarl	$6, %esi
	cmpl	4(%r12), %esi
	jg	.L1185
.L1175:
	movq	8(%r12), %rdx
	movslq	%esi, %rsi
	movl	%eax, (%r12)
	movq	%r12, %rdi
	leaq	(%rdx,%rsi,8), %rdx
	movq	%rbp, %rsi
	movq	%rdx, 16(%r12)
	call	__ld_wire_val_xstk@PLT
	movl	8(%rbp), %r8d
	addl	$63, %r8d
	sarl	$6, %r8d
	movslq	%r8d, %rsi
	salq	$3, %rsi
	testl	%r8d, %r8d
	jle	.L1176
	subl	$1, %r8d
	movq	8(%r15), %rax
	movq	8(%r12), %rcx
	movq	16(%r12), %rdx
	leaq	8(%rbx,%r8,8), %r9
	movq	%rbx, %rdi
	.p2align 4,,10
	.p2align 3
.L1177:
	movq	(%rax), %r8
	addq	$8, %rax
	notq	%r8
	andq	%r8, (%rdi)
	movq	-8(%rax), %r8
	notq	%r8
	andq	%r8, (%rdi,%rsi)
	movq	-8(%rax), %r8
	andq	%r8, (%rcx)
	addq	$8, %rcx
	movq	-8(%rax), %r8
	andq	%r8, (%rdx)
	addq	$8, %rdx
	movq	-8(%rcx), %r8
	orq	%r8, (%rdi)
	movq	-8(%rdx), %r8
	orq	%r8, (%rdi,%rsi)
	addq	$8, %rdi
	cmpq	%rdi, %r9
	jne	.L1177
.L1176:
	movl	$1, %eax
	subl	$2, (%r14)
	addq	$8, %rsp
	.cfi_remember_state
	.cfi_def_cfa_offset 56
	popq	%rbx
	.cfi_def_cfa_offset 48
	popq	%rbp
	.cfi_def_cfa_offset 40
	popq	%r12
	.cfi_def_cfa_offset 32
	popq	%r13
	.cfi_def_cfa_offset 24
	popq	%r14
	.cfi_def_cfa_offset 16
	popq	%r15
	.cfi_def_cfa_offset 8
	ret
	.p2align 4,,10
	.p2align 3
.L1182:
	.cfi_restore_state
	subl	$1, (%r14)
	addq	$8, %rsp
	.cfi_remember_state
	.cfi_def_cfa_offset 56
	xorl	%eax, %eax
	popq	%rbx
	.cfi_def_cfa_offset 48
	popq	%rbp
	.cfi_def_cfa_offset 40
	popq	%r12
	.cfi_def_cfa_offset 32
	popq	%r13
	.cfi_def_cfa_offset 24
	popq	%r14
	.cfi_def_cfa_offset 16
	popq	%r15
	.cfi_def_cfa_offset 8
	ret
	.p2align 4,,10
	.p2align 3
.L1181:
	.cfi_restore_state
	movq	%r15, %rdi
	call	__chg_xstk_width@PLT
	movl	8(%rbp), %eax
	leal	63(%rax), %esi
	sarl	$6, %esi
	jmp	.L1168
	.p2align 4,,10
	.p2align 3
.L1180:
	call	__grow_xstk@PLT
	movl	(%r14), %eax
	jmp	.L1167
	.p2align 4,,10
	.p2align 3
.L1183:
	subl	$1, %eax
	movl	%eax, (%r14)
	addq	$8, %rsp
	.cfi_remember_state
	.cfi_def_cfa_offset 56
	movl	$1, %eax
	popq	%rbx
	.cfi_def_cfa_offset 48
	popq	%rbp
	.cfi_def_cfa_offset 40
	popq	%r12
	.cfi_def_cfa_offset 32
	popq	%r13
	.cfi_def_cfa_offset 24
	popq	%r14
	.cfi_def_cfa_offset 16
	popq	%r15
	.cfi_def_cfa_offset 8
	ret
	.p2align 4,,10
	.p2align 3
.L1171:
	.cfi_restore_state
	call	__wide_vval_is0@PLT
	testl	%eax, %eax
	setne	%dl
	jmp	.L1172
	.p2align 4,,10
	.p2align 3
.L1185:
	movq	%r12, %rdi
	call	__chg_xstk_width@PLT
	movl	8(%rbp), %eax
	leal	63(%rax), %esi
	sarl	$6, %esi
	jmp	.L1175
	.p2align 4,,10
	.p2align 3
.L1184:
	call	__grow_xstk@PLT
	movl	(%r14), %eax
	jmp	.L1174
	.cfi_endproc
.LFE162:
	.size	__asl_correct_frc, .-__asl_correct_frc
	.p2align 4,,15
	.globl	__asl_psel_correct_frc
	.type	__asl_psel_correct_frc, @function
__asl_psel_correct_frc:
.LFB163:
	.cfi_startproc
	pushq	%r15
	.cfi_def_cfa_offset 16
	.cfi_offset 15, -16
	pushq	%r14
	.cfi_def_cfa_offset 24
	.cfi_offset 14, -24
	pushq	%r13
	.cfi_def_cfa_offset 32
	.cfi_offset 13, -32
	pushq	%r12
	.cfi_def_cfa_offset 40
	.cfi_offset 12, -40
	movq	%rdi, %r13
	pushq	%rbp
	.cfi_def_cfa_offset 48
	.cfi_offset 6, -48
	pushq	%rbx
	.cfi_def_cfa_offset 56
	.cfi_offset 3, -56
	movl	%edx, %ebx
	subl	%ecx, %ebx
	subq	$56, %rsp
	.cfi_def_cfa_offset 112
	movl	8(%rsi), %eax
	movq	__xspi@GOTPCREL(%rip), %r14
	movq	__maxxnest@GOTPCREL(%rip), %rdi
	movq	%rsi, 8(%rsp)
	leal	1(%rbx), %r12d
	movl	%edx, 40(%rsp)
	movl	%ecx, 20(%rsp)
	movl	%eax, 44(%rsp)
	movl	(%r14), %eax
	addl	$1, %eax
	cmpl	(%rdi), %eax
	movl	%eax, (%r14)
	jge	.L1202
.L1187:
	movq	__xstk@GOTPCREL(%rip), %r15
	movslq	%eax, %rdx
	addl	$64, %ebx
	sarl	$6, %ebx
	movq	(%r15), %rcx
	movq	(%rcx,%rdx,8), %rbp
	cmpl	4(%rbp), %ebx
	jg	.L1203
.L1188:
	movslq	%ebx, %rdx
	movq	__maxxnest@GOTPCREL(%rip), %rdi
	addl	$1, %eax
	leaq	0(,%rdx,8), %rcx
	movq	8(%rbp), %rdx
	movl	%r12d, 0(%rbp)
	movl	%eax, (%r14)
	movq	%rcx, 32(%rsp)
	addq	%rcx, %rdx
	cmpl	(%rdi), %eax
	movq	%rdx, 16(%rbp)
	jge	.L1204
.L1189:
	movq	(%r15), %rdx
	movq	8(%rsp), %rdi
	cltq
	movq	(%rdx,%rax,8), %rax
	movl	8(%rdi), %edx
	leal	63(%rdx), %esi
	sarl	$6, %esi
	cmpl	4(%rax), %esi
	jg	.L1205
.L1190:
	movq	8(%rax), %rdi
	movslq	%esi, %rsi
	movl	%edx, (%rax)
	movq	%rax, 24(%rsp)
	leaq	(%rdi,%rsi,8), %rcx
	movq	8(%rsp), %rsi
	movq	%rcx, 16(%rax)
	call	__bld_forcedbits_mask@PLT
	movq	24(%rsp), %rax
	movq	8(%rbp), %rdi
	movl	%r12d, %ecx
	movl	20(%rsp), %edx
	movq	8(%rax), %rsi
	call	__rhspsel@PLT
	movq	8(%rbp), %rdi
	movl	%r12d, %esi
	subl	$1, (%r14)
	call	__vval_is1@PLT
	testl	%eax, %eax
	jne	.L1206
	cmpl	$64, %r12d
	movq	8(%rbp), %rdi
	jg	.L1193
	cmpq	$0, (%rdi)
	sete	%dl
.L1194:
	testb	%dl, %dl
	movl	(%r14), %eax
	jne	.L1207
	movq	__maxxnest@GOTPCREL(%rip), %rcx
	addl	$1, %eax
	movl	%eax, (%r14)
	cmpl	(%rcx), %eax
	jge	.L1208
.L1196:
	movq	(%r15), %rdx
	cltq
	movq	(%rdx,%rax,8), %r15
	cmpl	4(%r15), %ebx
	jg	.L1209
.L1197:
	movq	8(%r15), %rdi
	movq	32(%rsp), %rsi
	movl	20(%rsp), %r8d
	movl	40(%rsp), %ecx
	movq	8(%rsp), %rdx
	movl	%r12d, (%r15)
	addq	%rdi, %rsi
	movq	%rsi, 16(%r15)
	call	__ld_psel@PLT
	testl	%ebx, %ebx
	jle	.L1198
	movl	44(%rsp), %r11d
	leal	-1(%rbx), %eax
	movq	8(%rbp), %rcx
	movq	8(%r15), %r8
	movq	16(%r15), %rdi
	leaq	8(,%rax,8), %rbx
	xorl	%eax, %eax
	addl	$63, %r11d
	sarl	$6, %r11d
	addl	%r11d, %r11d
	movslq	%r11d, %r11
	salq	$3, %r11
	.p2align 4,,10
	.p2align 3
.L1199:
	movq	(%rcx,%rax), %rdx
	notq	%rdx
	andq	%rdx, 0(%r13,%rax)
	leaq	(%r11,%rax), %rdx
	movq	(%rcx,%rax), %rsi
	addq	%r13, %rdx
	notq	%rsi
	andq	%rsi, (%rdx)
	movq	(%rcx,%rax), %rsi
	andq	%rsi, (%r8,%rax)
	movq	(%rcx,%rax), %rsi
	andq	%rsi, (%rdi,%rax)
	movq	(%r8,%rax), %rsi
	orq	%rsi, 0(%r13,%rax)
	movq	(%rdi,%rax), %rsi
	addq	$8, %rax
	orq	%rsi, (%rdx)
	cmpq	%rax, %rbx
	jne	.L1199
.L1198:
	movl	$1, %eax
	subl	$2, (%r14)
	addq	$56, %rsp
	.cfi_remember_state
	.cfi_def_cfa_offset 56
	popq	%rbx
	.cfi_def_cfa_offset 48
	popq	%rbp
	.cfi_def_cfa_offset 40
	popq	%r12
	.cfi_def_cfa_offset 32
	popq	%r13
	.cfi_def_cfa_offset 24
	popq	%r14
	.cfi_def_cfa_offset 16
	popq	%r15
	.cfi_def_cfa_offset 8
	ret
	.p2align 4,,10
	.p2align 3
.L1206:
	.cfi_restore_state
	subl	$1, (%r14)
	addq	$56, %rsp
	.cfi_remember_state
	.cfi_def_cfa_offset 56
	xorl	%eax, %eax
	popq	%rbx
	.cfi_def_cfa_offset 48
	popq	%rbp
	.cfi_def_cfa_offset 40
	popq	%r12
	.cfi_def_cfa_offset 32
	popq	%r13
	.cfi_def_cfa_offset 24
	popq	%r14
	.cfi_def_cfa_offset 16
	popq	%r15
	.cfi_def_cfa_offset 8
	ret
	.p2align 4,,10
	.p2align 3
.L1205:
	.cfi_restore_state
	movq	%rax, %rdi
	movq	%rax, 24(%rsp)
	call	__chg_xstk_width@PLT
	movq	8(%rsp), %rax
	movl	8(%rax), %edx
	movq	24(%rsp), %rax
	leal	63(%rdx), %esi
	sarl	$6, %esi
	jmp	.L1190
	.p2align 4,,10
	.p2align 3
.L1202:
	call	__grow_xstk@PLT
	movl	(%r14), %eax
	jmp	.L1187
	.p2align 4,,10
	.p2align 3
.L1204:
	call	__grow_xstk@PLT
	movl	(%r14), %eax
	jmp	.L1189
	.p2align 4,,10
	.p2align 3
.L1203:
	movl	%ebx, %esi
	movq	%rbp, %rdi
	call	__chg_xstk_width@PLT
	movl	(%r14), %eax
	jmp	.L1188
	.p2align 4,,10
	.p2align 3
.L1207:
	subl	$1, %eax
	movl	%eax, (%r14)
	addq	$56, %rsp
	.cfi_remember_state
	.cfi_def_cfa_offset 56
	movl	$1, %eax
	popq	%rbx
	.cfi_def_cfa_offset 48
	popq	%rbp
	.cfi_def_cfa_offset 40
	popq	%r12
	.cfi_def_cfa_offset 32
	popq	%r13
	.cfi_def_cfa_offset 24
	popq	%r14
	.cfi_def_cfa_offset 16
	popq	%r15
	.cfi_def_cfa_offset 8
	ret
	.p2align 4,,10
	.p2align 3
.L1193:
	.cfi_restore_state
	movl	%r12d, %esi
	call	__wide_vval_is0@PLT
	testl	%eax, %eax
	setne	%dl
	jmp	.L1194
	.p2align 4,,10
	.p2align 3
.L1209:
	movl	%ebx, %esi
	movq	%r15, %rdi
	call	__chg_xstk_width@PLT
	jmp	.L1197
	.p2align 4,,10
	.p2align 3
.L1208:
	call	__grow_xstk@PLT
	movl	(%r14), %eax
	jmp	.L1196
	.cfi_endproc
.LFE163:
	.size	__asl_psel_correct_frc, .-__asl_psel_correct_frc
	.p2align 4,,15
	.globl	__asl_stren_psel_correct_frc
	.type	__asl_stren_psel_correct_frc, @function
__asl_stren_psel_correct_frc:
.LFB164:
	.cfi_startproc
	movq	__idp@GOTPCREL(%rip), %rax
	movq	(%rax), %r10
	movq	32(%rsi), %rax
	leaq	0(,%rax,8), %r11
	movl	8(%rsi), %eax
	imull	(%r10), %eax
	subl	%ecx, %edx
	js	.L1214
	movslq	%ecx, %rcx
	cltq
	movl	%edx, %edx
	addq	%rcx, %rax
	addq	%rcx, %r11
	leaq	1(%rdx), %r9
	leaq	(%rax,%rax,4), %r8
	xorl	%edx, %edx
	xorl	%eax, %eax
	addq	%r11, %r10
	addq	%rcx, %rdi
	salq	$3, %r8
	jmp	.L1213
	.p2align 4,,10
	.p2align 3
.L1218:
	movzbl	(%r10,%rdx), %ecx
	addq	$40, %r8
	movb	%cl, (%rdi,%rdx)
	addq	$1, %rdx
	cmpq	%rdx, %r9
	je	.L1217
.L1213:
	movq	120(%rsi), %rcx
	testb	$1, (%rcx,%r8)
	jne	.L1218
	addq	$1, %rdx
	addq	$40, %r8
	movl	$1, %eax
	cmpq	%rdx, %r9
	jne	.L1213
.L1217:
	rep ret
	.p2align 4,,10
	.p2align 3
.L1214:
	xorl	%eax, %eax
	ret
	.cfi_endproc
.LFE164:
	.size	__asl_stren_psel_correct_frc, .-__asl_stren_psel_correct_frc
	.p2align 4,,15
	.globl	__asl_assign_qcaf_regform_concat
	.type	__asl_assign_qcaf_regform_concat, @function
__asl_assign_qcaf_regform_concat:
.LFB194:
	.cfi_startproc
	xorl	%esi, %esi
	jmp	__exec_qc_assign@PLT
	.cfi_endproc
.LFE194:
	.size	__asl_assign_qcaf_regform_concat, .-__asl_assign_qcaf_regform_concat
	.p2align 4,,15
	.globl	__asl_assign_qcaf_concat
	.type	__asl_assign_qcaf_concat, @function
__asl_assign_qcaf_concat:
.LFB195:
	.cfi_startproc
	jmp	__exec_qc_wireforce@PLT
	.cfi_endproc
.LFE195:
	.size	__asl_assign_qcaf_concat, .-__asl_assign_qcaf_concat
	.p2align 4,,15
	.globl	__asl_exec_qc_deassign
	.type	__asl_exec_qc_deassign, @function
__asl_exec_qc_deassign:
.LFB201:
	.cfi_startproc
	movq	24(%rdi), %rdi
	jmp	asl_loc_do_qc_deassign
	.cfi_endproc
.LFE201:
	.size	__asl_exec_qc_deassign, .-__asl_exec_qc_deassign
	.p2align 4,,15
	.globl	__asl_exec_qc_deassign_concat
	.type	__asl_exec_qc_deassign_concat, @function
__asl_exec_qc_deassign_concat:
.LFB203:
	.cfi_startproc
	jmp	asl_loc_do_qc_deassign
	.cfi_endproc
.LFE203:
	.size	__asl_exec_qc_deassign_concat, .-__asl_exec_qc_deassign_concat
	.p2align 4,,15
	.globl	__asl_jmp_eq_stmask
	.type	__asl_jmp_eq_stmask, @function
__asl_jmp_eq_stmask:
.LFB206:
	.cfi_startproc
	testl	%edx, %edx
	jle	.L1227
	movzbl	(%rdi), %eax
	xorb	(%rsi), %al
	testb	$3, %al
	jne	.L1229
	leal	-1(%rdx), %ecx
	movl	$1, %eax
	addq	$1, %rcx
	jmp	.L1225
	.p2align 4,,10
	.p2align 3
.L1226:
	movzbl	(%rdi,%rax), %edx
	xorb	(%rsi,%rax), %dl
	addq	$1, %rax
	andl	$3, %edx
	jne	.L1229
.L1225:
	cmpq	%rcx, %rax
	jne	.L1226
.L1227:
	xorl	%eax, %eax
	ret
	.p2align 4,,10
	.p2align 3
.L1229:
	movl	$1, %eax
	ret
	.cfi_endproc
.LFE206:
	.size	__asl_jmp_eq_stmask, .-__asl_jmp_eq_stmask
	.p2align 4,,15
	.globl	__asl_trigger_ectrl
	.type	__asl_trigger_ectrl, @function
__asl_trigger_ectrl:
.LFB207:
	.cfi_startproc
	movq	__simtime@GOTPCREL(%rip), %rax
	movq	__cur_te_endp@GOTPCREL(%rip), %rcx
	movq	$1, 16(%rdi)
	movq	(%rax), %rax
	movq	(%rcx), %rdx
	movq	%rax, 48(%rdi)
	movq	__cur_tevp@GOTPCREL(%rip), %rax
	testq	%rdx, %rdx
	movq	(%rax), %rax
	je	.L1240
	cmpq	%rax, %rdx
	je	.L1237
.L1239:
	movq	72(%rax), %rdx
	movq	%rdx, 72(%rdi)
	movq	72(%rax), %rdx
	movq	%rdi, 80(%rdx)
.L1238:
	movq	%rdi, 72(%rax)
	movq	%rax, 80(%rdi)
	ret
	.p2align 4,,10
	.p2align 3
.L1237:
	movq	__free_event_tevp@GOTPCREL(%rip), %rdx
	movq	%rdi, (%rcx)
	movq	(%rdx), %rdx
	movq	%rdx, 72(%rdi)
	movq	%rdi, 72(%rax)
	movq	%rax, 80(%rdi)
	ret
	.p2align 4,,10
	.p2align 3
.L1240:
	testq	%rax, %rax
	je	.L1241
	movq	__p0_te_endp@GOTPCREL(%rip), %rdx
	cmpq	%rax, (%rdx)
	jne	.L1239
	movq	%rdi, (%rdx)
	movq	__free_event_pnd0_tevp@GOTPCREL(%rip), %rdx
	movq	(%rdx), %rdx
	movq	%rdx, 72(%rdi)
	jmp	.L1238
	.p2align 4,,10
	.p2align 3
.L1241:
	movq	__p0_te_hdrp@GOTPCREL(%rip), %rax
	movq	(%rax), %rdx
	testq	%rdx, %rdx
	je	.L1242
	movq	%rdx, 72(%rdi)
	movq	%rdi, (%rax)
	ret
	.p2align 4,,10
	.p2align 3
.L1242:
	movq	__p0_te_endp@GOTPCREL(%rip), %rdx
	movq	%rdi, (%rax)
	movq	%rdi, (%rdx)
	ret
	.cfi_endproc
.LFE207:
	.size	__asl_trigger_ectrl, .-__asl_trigger_ectrl
	.p2align 4,,15
	.globl	__asl_sched_fork
	.type	__asl_sched_fork, @function
__asl_sched_fork:
.LFB152:
	.cfi_startproc
	pushq	%r15
	.cfi_def_cfa_offset 16
	.cfi_offset 15, -16
	pushq	%r14
	.cfi_def_cfa_offset 24
	.cfi_offset 14, -24
	pushq	%r13
	.cfi_def_cfa_offset 32
	.cfi_offset 13, -32
	pushq	%r12
	.cfi_def_cfa_offset 40
	.cfi_offset 12, -40
	pushq	%rbp
	.cfi_def_cfa_offset 48
	.cfi_offset 6, -48
	pushq	%rbx
	.cfi_def_cfa_offset 56
	.cfi_offset 3, -56
	subq	$40, %rsp
	.cfi_def_cfa_offset 96
	movq	16(%rdi), %rax
	movq	%rsi, 24(%rsp)
	movq	(%rax), %rbp
	testq	%rbp, %rbp
	je	.L1244
	movq	%rdi, %r8
	movl	$8, %r13d
	xorl	%r14d, %r14d
	movq	__sfnam_ind@GOTPCREL(%rip), %r12
	movq	__slin_cnt@GOTPCREL(%rip), %r15
	jmp	.L1249
	.p2align 4,,10
	.p2align 3
.L1246:
	movq	%r14, 48(%rbx)
	movq	%rbx, 40(%r14)
.L1247:
	movq	__idp@GOTPCREL(%rip), %rax
	movq	%r9, 32(%rbx)
	movq	%rbx, %r14
	movq	(%rax), %rax
	orb	$8, (%rbx)
	movq	%rax, 104(%rbx)
	movq	16(%r8), %rax
	movq	(%rax,%r13), %rbp
	addq	$8, %r13
	testq	%rbp, %rbp
	je	.L1248
.L1249:
	movzbl	0(%rbp), %eax
	andl	$63, %eax
	cmpb	$13, %al
	jne	.L1245
	movq	16(%rbp), %rbp
.L1245:
	movzwl	4(%rbp), %eax
	movl	(%r12), %r10d
	movl	(%r15), %r9d
	movq	%r8, 16(%rsp)
	movl	%r10d, 12(%rsp)
	movl	%eax, (%r12)
	movl	8(%rbp), %eax
	movl	%r9d, 8(%rsp)
	movl	%eax, (%r15)
	call	__alloc_thrd@PLT
	movq	%rax, %rbx
	movslq	(%r12), %rax
	movq	%rbp, 24(%rbx)
	movq	%rax, 16(%rbx)
	movl	(%r15), %eax
	movl	%eax, 4(%rbx)
	call	asl_loc_get_new_thread_event
	movq	%rax, 72(%rbx)
	movq	%rax, %rdi
	movq	%rbx, 8(%rax)
	call	__asl_trigger_ectrl@PLT
	movl	8(%rsp), %r9d
	movq	__cur_thd@GOTPCREL(%rip), %rax
	movl	12(%rsp), %r10d
	movl	%r9d, (%r15)
	movq	(%rax), %r9
	movl	%r10d, (%r12)
	movl	(%r9), %eax
	movl	%eax, %edi
	andl	$-1073741761, %eax
	shrl	$6, %edi
	addl	$1, %edi
	andl	$16777215, %edi
	sall	$6, %edi
	orl	%edi, %eax
	testq	%r14, %r14
	movl	%eax, (%r9)
	movq	16(%rsp), %r8
	jne	.L1246
	movq	%rbx, 56(%r9)
	jmp	.L1247
	.p2align 4,,10
	.p2align 3
.L1244:
	movq	__cur_thd@GOTPCREL(%rip), %rax
	movq	(%rax), %r9
.L1248:
	movq	24(%rsp), %rax
	movq	%rax, 24(%r9)
	addq	$40, %rsp
	.cfi_def_cfa_offset 56
	popq	%rbx
	.cfi_def_cfa_offset 48
	popq	%rbp
	.cfi_def_cfa_offset 40
	popq	%r12
	.cfi_def_cfa_offset 32
	popq	%r13
	.cfi_def_cfa_offset 24
	popq	%r14
	.cfi_def_cfa_offset 16
	popq	%r15
	.cfi_def_cfa_offset 8
	ret
	.cfi_endproc
.LFE152:
	.size	__asl_sched_fork, .-__asl_sched_fork
	.p2align 4,,15
	.globl	__asl_trigger_ectrl_xprop
	.type	__asl_trigger_ectrl_xprop, @function
__asl_trigger_ectrl_xprop:
.LFB208:
	.cfi_startproc
	movq	__simtime@GOTPCREL(%rip), %rax
	movq	__cur_te_endp@GOTPCREL(%rip), %rcx
	movq	%rsi, 24(%rdi)
	movq	$1, 16(%rdi)
	movq	(%rax), %rax
	movq	(%rcx), %rdx
	movq	%rax, 48(%rdi)
	movq	__cur_tevp@GOTPCREL(%rip), %rax
	testq	%rdx, %rdx
	movq	(%rax), %rax
	je	.L1264
	cmpq	%rax, %rdx
	je	.L1261
.L1263:
	movq	72(%rax), %rdx
	movq	%rdx, 72(%rdi)
	movq	72(%rax), %rdx
	movq	%rdi, 80(%rdx)
.L1262:
	movq	%rdi, 72(%rax)
	movq	%rax, 80(%rdi)
	ret
	.p2align 4,,10
	.p2align 3
.L1261:
	movq	__free_event_tevp@GOTPCREL(%rip), %rdx
	movq	%rdi, (%rcx)
	movq	(%rdx), %rdx
	movq	%rdx, 72(%rdi)
	movq	%rdi, 72(%rax)
	movq	%rax, 80(%rdi)
	ret
	.p2align 4,,10
	.p2align 3
.L1264:
	testq	%rax, %rax
	je	.L1265
	movq	__p0_te_endp@GOTPCREL(%rip), %rdx
	cmpq	%rax, (%rdx)
	jne	.L1263
	movq	%rdi, (%rdx)
	movq	__free_event_pnd0_tevp@GOTPCREL(%rip), %rdx
	movq	(%rdx), %rdx
	movq	%rdx, 72(%rdi)
	jmp	.L1262
	.p2align 4,,10
	.p2align 3
.L1265:
	movq	__p0_te_hdrp@GOTPCREL(%rip), %rax
	movq	(%rax), %rdx
	testq	%rdx, %rdx
	je	.L1266
	movq	%rdx, 72(%rdi)
	movq	%rdi, (%rax)
	ret
	.p2align 4,,10
	.p2align 3
.L1266:
	movq	__p0_te_endp@GOTPCREL(%rip), %rdx
	movq	%rdi, (%rax)
	movq	%rdi, (%rdx)
	ret
	.cfi_endproc
.LFE208:
	.size	__asl_trigger_ectrl_xprop, .-__asl_trigger_ectrl_xprop
	.p2align 4,,15
	.globl	__asl_compiled_ev_to_front
	.type	__asl_compiled_ev_to_front, @function
__asl_compiled_ev_to_front:
.LFB209:
	.cfi_startproc
	jmp	__asl_trigger_ectrl@PLT
	.cfi_endproc
.LFE209:
	.size	__asl_compiled_ev_to_front, .-__asl_compiled_ev_to_front
	.p2align 4,,15
	.globl	__asl_nb_trigger_ectrl
	.type	__asl_nb_trigger_ectrl, @function
__asl_nb_trigger_ectrl:
.LFB210:
	.cfi_startproc
	movq	__p0_te_hdrp@GOTPCREL(%rip), %rax
	cmpq	$0, (%rax)
	je	.L1271
	movq	__p0_te_endp@GOTPCREL(%rip), %rax
	movq	(%rax), %rdx
	movq	%rdi, (%rax)
	movq	__free_event_pnd0_tevp@GOTPCREL(%rip), %rax
	movq	%rdi, 72(%rdx)
	movq	(%rax), %rax
	movq	%rax, 72(%rdi)
	ret
	.p2align 4,,10
	.p2align 3
.L1271:
	movq	__p0_te_endp@GOTPCREL(%rip), %rdx
	movq	%rdi, (%rax)
	movq	%rdi, (%rdx)
	ret
	.cfi_endproc
.LFE210:
	.size	__asl_nb_trigger_ectrl, .-__asl_nb_trigger_ectrl
	.p2align 4,,15
	.globl	__asl_fmonit_trigger
	.type	__asl_fmonit_trigger, @function
__asl_fmonit_trigger:
.LFB211:
	.cfi_startproc
	pushq	%rbx
	.cfi_def_cfa_offset 16
	.cfi_offset 3, -16
	movq	88(%rdi), %rbx
	cmpq	$0, 24(%rbx)
	je	.L1279
	popq	%rbx
	.cfi_remember_state
	.cfi_def_cfa_offset 8
	ret
	.p2align 4,,10
	.p2align 3
.L1279:
	.cfi_restore_state
	movq	__fmse_freelst@GOTPCREL(%rip), %rdx
	movq	(%rdx), %rax
	testq	%rax, %rax
	je	.L1280
	movq	8(%rax), %rcx
	movq	%rcx, (%rdx)
.L1275:
	movq	__fmonse_hdr@GOTPCREL(%rip), %rdx
	movq	$0, 8(%rax)
	movq	%rbx, (%rax)
	cmpq	$0, (%rdx)
	je	.L1281
	movq	__fmonse_end@GOTPCREL(%rip), %rdx
	movq	(%rdx), %rcx
	movq	%rax, 8(%rcx)
.L1277:
	movq	%rax, (%rdx)
	movq	%rax, 24(%rbx)
	movq	__slotend_action@GOTPCREL(%rip), %rax
	orq	$8, (%rax)
	popq	%rbx
	.cfi_remember_state
	.cfi_def_cfa_offset 8
	ret
	.p2align 4,,10
	.p2align 3
.L1281:
	.cfi_restore_state
	movq	%rax, (%rdx)
	movq	__fmonse_end@GOTPCREL(%rip), %rdx
	jmp	.L1277
	.p2align 4,,10
	.p2align 3
.L1280:
	movl	$16, %edi
	call	__my_malloc@PLT
	jmp	.L1275
	.cfi_endproc
.LFE211:
	.size	__asl_fmonit_trigger, .-__asl_fmonit_trigger
	.p2align 4,,15
	.globl	__asl_movabw_fr_svec
	.type	__asl_movabw_fr_svec, @function
__asl_movabw_fr_svec:
.LFB212:
	.cfi_startproc
	leal	63(%rdx), %eax
	pushq	%r15
	.cfi_def_cfa_offset 16
	.cfi_offset 15, -16
	pushq	%r14
	.cfi_def_cfa_offset 24
	.cfi_offset 14, -24
	pushq	%r13
	.cfi_def_cfa_offset 32
	.cfi_offset 13, -32
	pushq	%r12
	.cfi_def_cfa_offset 40
	.cfi_offset 12, -40
	sarl	$6, %eax
	pushq	%rbp
	.cfi_def_cfa_offset 48
	.cfi_offset 6, -48
	pushq	%rbx
	.cfi_def_cfa_offset 56
	.cfi_offset 3, -56
	cltq
	salq	$3, %rax
	subq	$24, %rsp
	.cfi_def_cfa_offset 80
	testl	%edx, %edx
	leaq	(%rdi,%rax), %r13
	movq	$0, -8(%rdi,%rax)
	movq	$0, -8(%r13,%rax)
	jle	.L1282
	leal	-1(%rdx), %eax
	movq	%rsi, %r12
	movq	%rdi, 8(%rsp)
	movq	%rsi, %r15
	leaq	1(%rsi,%rax), %r14
	.p2align 4,,10
	.p2align 3
.L1284:
	movzbl	(%r15), %ebx
	movl	%r15d, %ebp
	movq	8(%rsp), %rdi
	subl	%r12d, %ebp
	addq	$1, %r15
	movl	%ebp, %esi
	movq	%rbx, %rdx
	andl	$1, %edx
	call	__lhsbsel@PLT
	movq	%rbx, %rdx
	movl	%ebp, %esi
	movq	%r13, %rdi
	shrq	%rdx
	andl	$1, %edx
	call	__lhsbsel@PLT
	cmpq	%r14, %r15
	jne	.L1284
.L1282:
	addq	$24, %rsp
	.cfi_def_cfa_offset 56
	popq	%rbx
	.cfi_def_cfa_offset 48
	popq	%rbp
	.cfi_def_cfa_offset 40
	popq	%r12
	.cfi_def_cfa_offset 32
	popq	%r13
	.cfi_def_cfa_offset 24
	popq	%r14
	.cfi_def_cfa_offset 16
	popq	%r15
	.cfi_def_cfa_offset 8
	ret
	.cfi_endproc
.LFE212:
	.size	__asl_movabw_fr_svec, .-__asl_movabw_fr_svec
	.set	__asl_movabw_fr_svec.localalias.27,__asl_movabw_fr_svec
	.p2align 4,,15
	.globl	__asl_movabw_onew_fr_svec
	.type	__asl_movabw_onew_fr_svec, @function
__asl_movabw_onew_fr_svec:
.LFB213:
	.cfi_startproc
	testl	%esi, %esi
	jle	.L1290
	leal	-1(%rsi), %r9d
	xorl	%ecx, %ecx
	xorl	%r8d, %r8d
	xorl	%eax, %eax
	addq	$1, %r9
	.p2align 4,,10
	.p2align 3
.L1289:
	movzbl	(%rdi,%rcx), %edx
	movq	%rdx, %rsi
	shrq	%rdx
	andl	$1, %esi
	andl	$1, %edx
	salq	%cl, %rsi
	salq	%cl, %rdx
	addq	$1, %rcx
	orq	%rsi, %rax
	orq	%rdx, %r8
	cmpq	%rcx, %r9
	jne	.L1289
.L1288:
#APP
# 4999 "v_aslib.c" 1
	movq %r8, %rcx
# 0 "" 2
#NO_APP
	ret
	.p2align 4,,10
	.p2align 3
.L1290:
	xorl	%r8d, %r8d
	xorl	%eax, %eax
	jmp	.L1288
	.cfi_endproc
.LFE213:
	.size	__asl_movabw_onew_fr_svec, .-__asl_movabw_onew_fr_svec
	.p2align 4,,15
	.globl	__asl_4state_to_2state_wide
	.type	__asl_4state_to_2state_wide, @function
__asl_4state_to_2state_wide:
.LFB214:
	.cfi_startproc
	movslq	%edx, %rax
	testl	%edx, %edx
	leaq	0(,%rax,8), %rcx
	jle	.L1292
	leal	-1(%rdx), %eax
	addq	%rsi, %rcx
	leaq	8(,%rax,8), %r8
	xorl	%eax, %eax
	.p2align 4,,10
	.p2align 3
.L1294:
	movq	(%rcx,%rax), %rdx
	notq	%rdx
	andq	(%rsi,%rax), %rdx
	movq	%rdx, (%rdi,%rax)
	addq	$8, %rax
	cmpq	%rax, %r8
	jne	.L1294
.L1292:
	rep ret
	.cfi_endproc
.LFE214:
	.size	__asl_4state_to_2state_wide, .-__asl_4state_to_2state_wide
	.p2align 4,,15
	.globl	__asl_movsb_fr_wstad
	.type	__asl_movsb_fr_wstad, @function
__asl_movsb_fr_wstad:
.LFB215:
	.cfi_startproc
	testl	%edx, %edx
	jle	.L1296
	leal	-1(%rdx), %r8d
	leaq	0(,%rcx,4), %r9
	xorl	%ecx, %ecx
	addq	$1, %r8
	jmp	.L1300
	.p2align 4,,10
	.p2align 3
.L1298:
	movq	__stren_map_tab@GOTPCREL(%rip), %rdx
	orq	%r9, %rax
	movzbl	(%rdx,%rax), %eax
	movb	%al, (%rdi,%rcx)
	addq	$1, %rcx
	cmpq	%rcx, %r8
	je	.L1296
.L1300:
	movq	(%rsi), %rax
	shrq	%cl, %rax
	andl	$1, %eax
	movq	%rax, %rdx
	movq	8(%rsi), %rax
	shrq	%cl, %rax
	addq	%rax, %rax
	andl	$2, %eax
	orq	%rdx, %rax
	cmpq	$2, %rax
	jne	.L1298
	movb	$2, (%rdi,%rcx)
	addq	$1, %rcx
	cmpq	%rcx, %r8
	jne	.L1300
.L1296:
	rep ret
	.cfi_endproc
.LFE215:
	.size	__asl_movsb_fr_wstad, .-__asl_movsb_fr_wstad
	.p2align 4,,15
	.globl	__asl_movsb_fr_widestad
	.type	__asl_movsb_fr_widestad, @function
__asl_movsb_fr_widestad:
.LFB216:
	.cfi_startproc
	leal	63(%rdx), %eax
	sarl	$6, %eax
	cltq
	salq	$3, %rax
	testl	%edx, %edx
	jle	.L1309
	leal	-1(%rdx), %r10d
	pushq	%rbx
	.cfi_def_cfa_offset 16
	.cfi_offset 3, -16
	xorl	%r8d, %r8d
	leaq	0(,%rcx,4), %rbx
	leaq	(%rsi,%rax), %r11
	addq	$1, %r10
	jmp	.L1306
	.p2align 4,,10
	.p2align 3
.L1304:
	movq	__stren_map_tab@GOTPCREL(%rip), %rdx
	orq	%rbx, %rax
	movzbl	(%rdx,%rax), %eax
	movb	%al, (%rdi,%r8)
	addq	$1, %r8
	cmpq	%r8, %r10
	je	.L1312
.L1306:
	movl	%r8d, %edx
	movl	%r8d, %ecx
	sarl	$6, %edx
	andl	$63, %ecx
	movslq	%edx, %rdx
	movq	(%rsi,%rdx,8), %rax
	movq	(%r11,%rdx,8), %rdx
	shrq	%cl, %rax
	shrq	%cl, %rdx
	andl	$1, %eax
	movq	%rax, %r9
	leaq	(%rdx,%rdx), %rax
	andl	$2, %eax
	orq	%r9, %rax
	cmpq	$2, %rax
	jne	.L1304
	movb	$2, (%rdi,%r8)
	addq	$1, %r8
	cmpq	%r8, %r10
	jne	.L1306
.L1312:
	popq	%rbx
	.cfi_def_cfa_offset 8
	ret
	.p2align 4,,10
	.p2align 3
.L1309:
	.cfi_restore 3
	rep ret
	.cfi_endproc
.LFE216:
	.size	__asl_movsb_fr_widestad, .-__asl_movsb_fr_widestad
	.p2align 4,,15
	.globl	__asl_movsb_fr_scalstad
	.type	__asl_movsb_fr_scalstad, @function
__asl_movsb_fr_scalstad:
.LFB217:
	.cfi_startproc
	andl	$3, %edi
	cmpq	$2, %rdi
	je	.L1315
	movq	__stren_map_tab@GOTPCREL(%rip), %rax
	salq	$2, %rsi
	orq	%rdi, %rsi
	movzbl	(%rax,%rsi), %eax
	ret
	.p2align 4,,10
	.p2align 3
.L1315:
	movl	$2, %eax
	ret
	.cfi_endproc
.LFE217:
	.size	__asl_movsb_fr_scalstad, .-__asl_movsb_fr_scalstad
	.p2align 4,,15
	.globl	__asl_rhs_conta_stren
	.type	__asl_rhs_conta_stren, @function
__asl_rhs_conta_stren:
.LFB218:
	.cfi_startproc
	testl	%edx, %edx
	jle	.L1316
	leal	-1(%rdx), %eax
	sall	$2, %esi
	leaq	1(%rdi,%rax), %rcx
	.p2align 4,,10
	.p2align 3
.L1319:
	movzbl	(%rdi), %eax
	andl	$3, %eax
	cmpb	$2, %al
	je	.L1318
	movzbl	%al, %eax
	movq	__stren_map_tab@GOTPCREL(%rip), %rdx
	orl	%esi, %eax
	cltq
	movzbl	(%rdx,%rax), %eax
	movb	%al, (%rdi)
.L1318:
	addq	$1, %rdi
	cmpq	%rcx, %rdi
	jne	.L1319
.L1316:
	rep ret
	.cfi_endproc
.LFE218:
	.size	__asl_rhs_conta_stren, .-__asl_rhs_conta_stren
	.p2align 4,,15
	.globl	__asl_movr_fr_w
	.type	__asl_movr_fr_w, @function
__asl_movr_fr_w:
.LFB219:
	.cfi_startproc
	subq	$40, %rsp
	.cfi_def_cfa_offset 48
	movq	%fs:40, %rax
	movq	%rax, 24(%rsp)
	xorl	%eax, %eax
	cmpl	$64, %esi
	movq	(%rdi), %rax
	jg	.L1331
	testq	%rax, %rax
	js	.L1327
	pxor	%xmm0, %xmm0
	cvtsi2sdq	%rax, %xmm0
.L1324:
	movq	24(%rsp), %rax
	xorq	%fs:40, %rax
	jne	.L1332
	addq	$40, %rsp
	.cfi_remember_state
	.cfi_def_cfa_offset 8
	ret
	.p2align 4,,10
	.p2align 3
.L1327:
	.cfi_restore_state
	movq	%rax, %rdx
	pxor	%xmm0, %xmm0
	shrq	%rdx
	andl	$1, %eax
	orq	%rax, %rdx
	cvtsi2sdq	%rdx, %xmm0
	addsd	%xmm0, %xmm0
	jmp	.L1324
	.p2align 4,,10
	.p2align 3
.L1331:
	movq	8(%rdi), %rdx
	leaq	8(%rsp), %rsi
	leaq	16(%rsp), %rdi
	salq	$32, %rdx
	orq	%rdx, %rax
	movq	%rax, 8(%rsp)
	call	__v64_to_real@PLT
	movsd	16(%rsp), %xmm0
	jmp	.L1324
.L1332:
	call	__stack_chk_fail@PLT
	.cfi_endproc
.LFE219:
	.size	__asl_movr_fr_w, .-__asl_movr_fr_w
	.p2align 4,,15
	.globl	__asl_movr_fr_sgnw
	.type	__asl_movr_fr_sgnw, @function
__asl_movr_fr_sgnw:
.LFB220:
	.cfi_startproc
	subq	$40, %rsp
	.cfi_def_cfa_offset 48
	movq	%fs:40, %rax
	movq	%rax, 24(%rsp)
	xorl	%eax, %eax
	cmpl	$64, %esi
	movq	(%rdi), %rax
	jg	.L1345
	je	.L1336
	leal	-1(%rsi), %edx
	btq	%rdx, %rax
	jnc	.L1336
	movq	__masktab@GOTPCREL(%rip), %rdx
	movslq	%esi, %rsi
	movq	(%rdx,%rsi,8), %rdx
	notq	%rdx
	orq	%rdx, %rax
.L1336:
	pxor	%xmm0, %xmm0
	cvtsi2sd	%eax, %xmm0
.L1333:
	movq	24(%rsp), %rax
	xorq	%fs:40, %rax
	jne	.L1346
	addq	$40, %rsp
	.cfi_remember_state
	.cfi_def_cfa_offset 8
	ret
	.p2align 4,,10
	.p2align 3
.L1345:
	.cfi_restore_state
	movq	8(%rdi), %rdx
	leaq	8(%rsp), %rsi
	leaq	16(%rsp), %rdi
	salq	$32, %rdx
	orq	%rdx, %rax
	movq	%rax, 8(%rsp)
	call	__v64_to_real@PLT
	movsd	16(%rsp), %xmm0
	jmp	.L1333
.L1346:
	call	__stack_chk_fail@PLT
	.cfi_endproc
.LFE220:
	.size	__asl_movr_fr_sgnw, .-__asl_movr_fr_sgnw
	.p2align 4,,15
	.globl	__asl_movw_fr_r
	.type	__asl_movw_fr_r, @function
__asl_movw_fr_r:
.LFB221:
	.cfi_startproc
	ucomisd	.LC10(%rip), %xmm0
	jb	.L1352
	addsd	.LC15(%rip), %xmm0
	movq	$0, 8(%rdi)
	cvttsd2si	%xmm0, %eax
	cltq
	movq	%rax, (%rdi)
	ret
	.p2align 4,,10
	.p2align 3
.L1352:
	subsd	.LC15(%rip), %xmm0
	movq	$0, 8(%rdi)
	cvttsd2si	%xmm0, %eax
	cltq
	movq	%rax, (%rdi)
	ret
	.cfi_endproc
.LFE221:
	.size	__asl_movw_fr_r, .-__asl_movw_fr_r
	.p2align 4,,15
	.globl	__asl_movw_fr_r_2state
	.type	__asl_movw_fr_r_2state, @function
__asl_movw_fr_r_2state:
.LFB222:
	.cfi_startproc
	ucomisd	.LC10(%rip), %xmm0
	jb	.L1358
	addsd	.LC15(%rip), %xmm0
	cvttsd2si	%xmm0, %eax
	cltq
	ret
	.p2align 4,,10
	.p2align 3
.L1358:
	subsd	.LC15(%rip), %xmm0
	cvttsd2si	%xmm0, %eax
	cltq
	ret
	.cfi_endproc
.LFE222:
	.size	__asl_movw_fr_r_2state, .-__asl_movw_fr_r_2state
	.p2align 4,,15
	.globl	__asl_exec_sysfunc
	.type	__asl_exec_sysfunc, @function
__asl_exec_sysfunc:
.LFB223:
	.cfi_startproc
	subq	$8, %rsp
	.cfi_def_cfa_offset 16
	call	__exec_sysfunc@PLT
	movq	__xspi@GOTPCREL(%rip), %rcx
	movq	__xstk@GOTPCREL(%rip), %rax
	movslq	(%rcx), %rsi
	movq	(%rax), %rax
	movq	(%rax,%rsi,8), %rax
	movq	%rsi, %rdx
	subl	$1, %edx
	movl	%edx, (%rcx)
	movq	8(%rax), %rax
	addq	$8, %rsp
	.cfi_def_cfa_offset 8
	ret
	.cfi_endproc
.LFE223:
	.size	__asl_exec_sysfunc, .-__asl_exec_sysfunc
	.p2align 4,,15
	.globl	__asl_exec_sysfunc_stmtloc
	.type	__asl_exec_sysfunc_stmtloc, @function
__asl_exec_sysfunc_stmtloc:
.LFB224:
	.cfi_startproc
	pushq	%r13
	.cfi_def_cfa_offset 16
	.cfi_offset 13, -16
	pushq	%r12
	.cfi_def_cfa_offset 24
	.cfi_offset 12, -24
	pushq	%rbp
	.cfi_def_cfa_offset 32
	.cfi_offset 6, -32
	pushq	%rbx
	.cfi_def_cfa_offset 40
	.cfi_offset 3, -40
	subq	$8, %rsp
	.cfi_def_cfa_offset 48
	movzwl	4(%rsi), %eax
	movq	__sfnam_ind@GOTPCREL(%rip), %rbp
	movq	__slin_cnt@GOTPCREL(%rip), %rbx
	movl	0(%rbp), %r13d
	movl	%eax, 0(%rbp)
	movl	8(%rsi), %eax
	movl	(%rbx), %r12d
	movl	%eax, (%rbx)
	call	__exec_sysfunc@PLT
	movq	__xspi@GOTPCREL(%rip), %rcx
	movq	__xstk@GOTPCREL(%rip), %rax
	movl	%r13d, 0(%rbp)
	movl	%r12d, (%rbx)
	movslq	(%rcx), %rsi
	movq	(%rax), %rax
	movq	(%rax,%rsi,8), %rax
	movq	%rsi, %rdx
	subl	$1, %edx
	movl	%edx, (%rcx)
	movq	8(%rax), %rax
	addq	$8, %rsp
	.cfi_def_cfa_offset 40
	popq	%rbx
	.cfi_def_cfa_offset 32
	popq	%rbp
	.cfi_def_cfa_offset 24
	popq	%r12
	.cfi_def_cfa_offset 16
	popq	%r13
	.cfi_def_cfa_offset 8
	ret
	.cfi_endproc
.LFE224:
	.size	__asl_exec_sysfunc_stmtloc, .-__asl_exec_sysfunc_stmtloc
	.p2align 4,,15
	.globl	__asl_pop_xstk
	.type	__asl_pop_xstk, @function
__asl_pop_xstk:
.LFB225:
	.cfi_startproc
	movq	__xspi@GOTPCREL(%rip), %rax
	subl	%edi, (%rax)
	ret
	.cfi_endproc
.LFE225:
	.size	__asl_pop_xstk, .-__asl_pop_xstk
	.p2align 4,,15
	.globl	__asl_widcas_eval
	.type	__asl_widcas_eval, @function
__asl_widcas_eval:
.LFB226:
	.cfi_startproc
	movslq	%edx, %r8
	salq	$3, %r8
	testl	%edx, %edx
	jle	.L1368
	leaq	(%rdi,%r8), %r10
	addq	%rsi, %r8
	movq	(%rdi), %rcx
	xorq	(%rsi), %rcx
	movq	(%r10), %rax
	xorq	(%r8), %rax
	orq	%rax, %rcx
	jne	.L1370
	leal	-1(%rdx), %eax
	leaq	8(,%rax,8), %r9
	movl	$8, %eax
	jmp	.L1366
	.p2align 4,,10
	.p2align 3
.L1367:
	movq	(%rdi,%rax), %rcx
	movq	(%r10,%rax), %rdx
	xorq	(%rsi,%rax), %rcx
	xorq	(%r8,%rax), %rdx
	addq	$8, %rax
	orq	%rdx, %rcx
	jne	.L1370
.L1366:
	cmpq	%rax, %r9
	jne	.L1367
.L1368:
	xorl	%eax, %eax
	ret
	.p2align 4,,10
	.p2align 3
.L1370:
	movl	$1, %eax
	ret
	.cfi_endproc
.LFE226:
	.size	__asl_widcas_eval, .-__asl_widcas_eval
	.p2align 4,,15
	.globl	__asl_widcasx_eval
	.type	__asl_widcasx_eval, @function
__asl_widcasx_eval:
.LFB227:
	.cfi_startproc
	movslq	%edx, %r9
	salq	$3, %r9
	testl	%edx, %edx
	jle	.L1375
	leaq	(%rdi,%r9), %r11
	addq	%rsi, %r9
	movq	(%rdi), %rcx
	movq	(%r9), %r8
	xorq	(%rsi), %rcx
	movq	(%r11), %rax
	movq	%rax, %r10
	orq	%r8, %rax
	xorq	%r8, %r10
	notq	%rax
	orq	%r10, %rcx
	testq	%rax, %rcx
	jne	.L1376
	leal	-1(%rdx), %eax
	pushq	%rbx
	.cfi_def_cfa_offset 16
	.cfi_offset 3, -16
	leaq	8(,%rax,8), %rbx
	movl	$8, %eax
	jmp	.L1373
	.p2align 4,,10
	.p2align 3
.L1374:
	movq	(%r11,%rax), %rdx
	movq	(%r9,%rax), %r8
	movq	(%rdi,%rax), %rcx
	xorq	(%rsi,%rax), %rcx
	addq	$8, %rax
	movq	%rdx, %r10
	orq	%r8, %rdx
	xorq	%r8, %r10
	notq	%rdx
	orq	%r10, %rcx
	testq	%rdx, %rcx
	jne	.L1377
.L1373:
	cmpq	%rax, %rbx
	jne	.L1374
	xorl	%eax, %eax
	popq	%rbx
	.cfi_remember_state
	.cfi_def_cfa_offset 8
	ret
	.p2align 4,,10
	.p2align 3
.L1377:
	.cfi_restore_state
	movl	$1, %eax
	popq	%rbx
	.cfi_def_cfa_offset 8
	ret
	.p2align 4,,10
	.p2align 3
.L1375:
	.cfi_restore 3
	xorl	%eax, %eax
	ret
	.p2align 4,,10
	.p2align 3
.L1376:
	movl	$1, %eax
	ret
	.cfi_endproc
.LFE227:
	.size	__asl_widcasx_eval, .-__asl_widcasx_eval
	.p2align 4,,15
	.globl	__asl_widcasz_eval
	.type	__asl_widcasz_eval, @function
__asl_widcasz_eval:
.LFB228:
	.cfi_startproc
	movslq	%edx, %rax
	salq	$3, %rax
	testl	%edx, %edx
	jle	.L1385
	subl	$1, %edx
	pushq	%r12
	.cfi_def_cfa_offset 16
	.cfi_offset 12, -16
	leaq	(%rdi,%rax), %r11
	pushq	%rbp
	.cfi_def_cfa_offset 24
	.cfi_offset 6, -24
	leaq	(%rsi,%rax), %r10
	pushq	%rbx
	.cfi_def_cfa_offset 32
	.cfi_offset 3, -32
	leaq	8(,%rdx,8), %rbx
	xorl	%edx, %edx
	jmp	.L1384
	.p2align 4,,10
	.p2align 3
.L1393:
	addq	$8, %rdx
	cmpq	%rdx, %rbx
	je	.L1392
.L1384:
	movq	(%r11,%rdx), %r8
	movq	(%r10,%rdx), %rbp
	movq	(%rdi,%rdx), %rax
	movq	(%rsi,%rdx), %r12
	movq	%r8, %rcx
	movq	%rbp, %r9
	xorq	%rbp, %r8
	notq	%rcx
	notq	%r9
	orq	%rax, %rcx
	orq	%r12, %r9
	xorq	%r12, %rax
	andq	%r9, %rcx
	orq	%r8, %rax
	testq	%rax, %rcx
	je	.L1393
	popq	%rbx
	.cfi_remember_state
	.cfi_def_cfa_offset 24
	movl	$1, %eax
	popq	%rbp
	.cfi_def_cfa_offset 16
	popq	%r12
	.cfi_def_cfa_offset 8
	ret
	.p2align 4,,10
	.p2align 3
.L1392:
	.cfi_restore_state
	popq	%rbx
	.cfi_def_cfa_offset 24
	xorl	%eax, %eax
	popq	%rbp
	.cfi_def_cfa_offset 16
	popq	%r12
	.cfi_def_cfa_offset 8
	ret
	.p2align 4,,10
	.p2align 3
.L1385:
	.cfi_restore 3
	.cfi_restore 6
	.cfi_restore 12
	xorl	%eax, %eax
	ret
	.cfi_endproc
.LFE228:
	.size	__asl_widcasz_eval, .-__asl_widcasz_eval
	.p2align 4,,15
	.globl	__asl_wide_bitxor
	.type	__asl_wide_bitxor, @function
__asl_wide_bitxor:
.LFB229:
	.cfi_startproc
	testl	%ecx, %ecx
	jle	.L1394
	leal	-1(%rcx), %eax
	leaq	8(,%rax,8), %r8
	xorl	%eax, %eax
	.p2align 4,,10
	.p2align 3
.L1396:
	movq	(%rsi,%rax), %rcx
	xorq	(%rdx,%rax), %rcx
	movq	%rcx, (%rdi,%rax)
	addq	$8, %rax
	cmpq	%rax, %r8
	jne	.L1396
.L1394:
	rep ret
	.cfi_endproc
.LFE229:
	.size	__asl_wide_bitxor, .-__asl_wide_bitxor
	.p2align 4,,15
	.globl	__asl_wide_notl
	.type	__asl_wide_notl, @function
__asl_wide_notl:
.LFB230:
	.cfi_startproc
	testl	%edx, %edx
	jle	.L1398
	leal	-1(%rdx), %eax
	leaq	8(,%rax,8), %rcx
	xorl	%eax, %eax
	.p2align 4,,10
	.p2align 3
.L1400:
	movq	(%rsi,%rax), %rdx
	notq	%rdx
	movq	%rdx, (%rdi,%rax)
	addq	$8, %rax
	cmpq	%rcx, %rax
	jne	.L1400
.L1398:
	rep ret
	.cfi_endproc
.LFE230:
	.size	__asl_wide_notl, .-__asl_wide_notl
	.p2align 4,,15
	.globl	__asl_wide_bitand
	.type	__asl_wide_bitand, @function
__asl_wide_bitand:
.LFB231:
	.cfi_startproc
	testl	%ecx, %ecx
	jle	.L1402
	leal	-1(%rcx), %eax
	leaq	8(,%rax,8), %r8
	xorl	%eax, %eax
	.p2align 4,,10
	.p2align 3
.L1404:
	movq	(%rsi,%rax), %rcx
	andq	(%rdx,%rax), %rcx
	movq	%rcx, (%rdi,%rax)
	addq	$8, %rax
	cmpq	%rax, %r8
	jne	.L1404
.L1402:
	rep ret
	.cfi_endproc
.LFE231:
	.size	__asl_wide_bitand, .-__asl_wide_bitand
	.p2align 4,,15
	.globl	__asl_wide_redxor
	.type	__asl_wide_redxor, @function
__asl_wide_redxor:
.LFB232:
	.cfi_startproc
	testl	%esi, %esi
	pushq	%r12
	.cfi_def_cfa_offset 16
	.cfi_offset 12, -16
	pushq	%rbp
	.cfi_def_cfa_offset 24
	.cfi_offset 6, -24
	pushq	%rbx
	.cfi_def_cfa_offset 32
	.cfi_offset 3, -32
	jle	.L1409
	leal	-1(%rsi), %eax
	movq	%rdi, %rbx
	xorl	%ebp, %ebp
	leaq	8(%rdi,%rax,8), %r12
	.p2align 4,,10
	.p2align 3
.L1408:
	movq	(%rbx), %rdi
	addq	$8, %rbx
	call	__wrd_redxor@PLT
	xorq	%rax, %rbp
	cmpq	%r12, %rbx
	jne	.L1408
	movq	%rbp, %rax
	popq	%rbx
	.cfi_remember_state
	.cfi_def_cfa_offset 24
	popq	%rbp
	.cfi_def_cfa_offset 16
	popq	%r12
	.cfi_def_cfa_offset 8
	ret
	.p2align 4,,10
	.p2align 3
.L1409:
	.cfi_restore_state
	xorl	%ebp, %ebp
	movq	%rbp, %rax
	popq	%rbx
	.cfi_def_cfa_offset 24
	popq	%rbp
	.cfi_def_cfa_offset 16
	popq	%r12
	.cfi_def_cfa_offset 8
	ret
	.cfi_endproc
.LFE232:
	.size	__asl_wide_redxor, .-__asl_wide_redxor
	.p2align 4,,15
	.globl	__asl_wid_bin_bitor_x
	.type	__asl_wid_bin_bitor_x, @function
__asl_wid_bin_bitor_x:
.LFB233:
	.cfi_startproc
	leal	63(%rcx), %eax
	pushq	%r12
	.cfi_def_cfa_offset 16
	.cfi_offset 12, -16
	pushq	%rbp
	.cfi_def_cfa_offset 24
	.cfi_offset 6, -24
	pushq	%rbx
	.cfi_def_cfa_offset 32
	.cfi_offset 3, -32
	sarl	$6, %eax
	movslq	%eax, %r11
	salq	$3, %r11
	testl	%eax, %eax
	leaq	(%rdi,%r11), %rbp
	jle	.L1413
	subl	$1, %eax
	leaq	(%rsi,%r11), %rbx
	leaq	(%rdx,%r11), %r10
	leaq	8(,%rax,8), %r12
	xorl	%eax, %eax
	jmp	.L1416
	.p2align 4,,10
	.p2align 3
.L1419:
	movq	$0, 0(%rbp,%rax)
	movq	(%rsi,%rax), %r8
	orq	(%rdx,%rax), %r8
	movq	%r8, (%rdi,%rax)
	addq	$8, %rax
	cmpq	%rax, %r12
	je	.L1413
.L1416:
	movq	(%rbx,%rax), %r8
	orq	(%r10,%rax), %r8
	je	.L1419
	movq	(%rsi,%rax), %r9
	orq	(%rdx,%rax), %r9
	orq	%r9, %r8
	movq	%r8, (%rdi,%rax)
	movq	(%rbx,%rax), %r8
	orq	(%r10,%rax), %r8
	movq	%r8, 0(%rbp,%rax)
	addq	$8, %rax
	cmpq	%rax, %r12
	jne	.L1416
.L1413:
	movq	__masktab@GOTPCREL(%rip), %rax
	subq	$8, %r11
	andl	$63, %ecx
	movq	(%rax,%rcx,8), %rax
	andq	%rax, (%rdi,%r11)
	andq	%rax, 0(%rbp,%r11)
	popq	%rbx
	.cfi_def_cfa_offset 24
	popq	%rbp
	.cfi_def_cfa_offset 16
	popq	%r12
	.cfi_def_cfa_offset 8
	ret
	.cfi_endproc
.LFE233:
	.size	__asl_wid_bin_bitor_x, .-__asl_wid_bin_bitor_x
	.p2align 4,,15
	.globl	__asl_wid_un_redor_x
	.type	__asl_wid_un_redor_x, @function
__asl_wid_un_redor_x:
.LFB234:
	.cfi_startproc
	leal	63(%rsi), %eax
	sarl	$6, %eax
	cmpl	$64, %esi
	cltq
	leaq	(%rdi,%rax,8), %rax
	jg	.L1421
	cmpq	$0, (%rax)
	jne	.L1432
	xorl	%eax, %eax
	cmpq	$0, (%rdi)
	setne	%al
	ret
	.p2align 4,,10
	.p2align 3
.L1432:
	movl	$3, %eax
	ret
	.p2align 4,,10
	.p2align 3
.L1421:
	pushq	%rbp
	.cfi_def_cfa_offset 16
	.cfi_offset 6, -16
	pushq	%rbx
	.cfi_def_cfa_offset 24
	.cfi_offset 3, -24
	movq	%rdi, %rbp
	movq	%rax, %rdi
	movl	%esi, %ebx
	subq	$8, %rsp
	.cfi_def_cfa_offset 32
	call	__wide_vval_is0@PLT
	testl	%eax, %eax
	je	.L1433
	movl	%ebx, %esi
	movq	%rbp, %rdi
	call	__wide_vval_is0@PLT
	testl	%eax, %eax
	sete	%al
	addq	$8, %rsp
	.cfi_remember_state
	.cfi_def_cfa_offset 24
	movzbl	%al, %eax
	popq	%rbx
	.cfi_def_cfa_offset 16
	popq	%rbp
	.cfi_def_cfa_offset 8
	ret
	.p2align 4,,10
	.p2align 3
.L1433:
	.cfi_restore_state
	addq	$8, %rsp
	.cfi_def_cfa_offset 24
	movl	$3, %eax
	popq	%rbx
	.cfi_def_cfa_offset 16
	popq	%rbp
	.cfi_def_cfa_offset 8
	ret
	.cfi_endproc
.LFE234:
	.size	__asl_wid_un_redor_x, .-__asl_wid_un_redor_x
	.p2align 4,,15
	.globl	__asl_has_xedge_wide
	.type	__asl_has_xedge_wide, @function
__asl_has_xedge_wide:
.LFB235:
	.cfi_startproc
	movslq	%edx, %rcx
	salq	$3, %rcx
	testl	%edx, %edx
	jle	.L1439
	leal	-1(%rdx), %eax
	pushq	%rbp
	.cfi_def_cfa_offset 16
	.cfi_offset 6, -16
	leaq	(%rsi,%rcx), %r11
	pushq	%rbx
	.cfi_def_cfa_offset 24
	.cfi_offset 3, -24
	leaq	(%rdi,%rcx), %rbx
	xorl	%edx, %edx
	leaq	8(,%rax,8), %rbp
	xorl	%eax, %eax
	.p2align 4,,10
	.p2align 3
.L1438:
	movq	(%rdi,%rdx), %r9
	movq	(%rsi,%rdx), %r8
	movq	(%rbx,%rdx), %rcx
	movq	(%r11,%rdx), %r10
	andq	%r9, %rcx
	andq	%r8, %r10
	orq	%r10, %rcx
	je	.L1436
	orq	%rcx, %r9
	orq	%r8, %rcx
	movl	$1, %eax
	cmpq	%rcx, %r9
	jne	.L1434
.L1436:
	addq	$8, %rdx
	cmpq	%rdx, %rbp
	jne	.L1438
	xorl	$1, %eax
.L1434:
	popq	%rbx
	.cfi_def_cfa_offset 16
	popq	%rbp
	.cfi_def_cfa_offset 8
	ret
.L1439:
	.cfi_restore 3
	.cfi_restore 6
	movl	$1, %eax
	ret
	.cfi_endproc
.LFE235:
	.size	__asl_has_xedge_wide, .-__asl_has_xedge_wide
	.p2align 4,,15
	.globl	__asl_has_xedge_wide_st
	.type	__asl_has_xedge_wide_st, @function
__asl_has_xedge_wide_st:
.LFB236:
	.cfi_startproc
	testl	%edx, %edx
	jle	.L1453
	leal	-1(%rdx), %r10d
	xorl	%eax, %eax
	xorl	%edx, %edx
	movl	$1, %r11d
	addq	$1, %r10
	.p2align 4,,10
	.p2align 3
.L1452:
	movzbl	(%rdi,%rdx), %r8d
	movzbl	(%rsi,%rdx), %ecx
	movl	%r8d, %r9d
	andl	$1, %r8d
	shrb	%r9b
	andl	%r9d, %r8d
	movl	%ecx, %r9d
	andl	$1, %ecx
	shrb	%r9b
	andl	%r9d, %ecx
	orb	%cl, %r8b
	cmovne	%r11d, %eax
	addq	$1, %rdx
	cmpq	%rdx, %r10
	jne	.L1452
	xorl	$1, %eax
	ret
	.p2align 4,,10
	.p2align 3
.L1453:
	movl	$1, %eax
	ret
	.cfi_endproc
.LFE236:
	.size	__asl_has_xedge_wide_st, .-__asl_has_xedge_wide_st
	.p2align 4,,15
	.globl	__asl_xprop_check_case_net_set
	.type	__asl_xprop_check_case_net_set, @function
__asl_xprop_check_case_net_set:
.LFB237:
	.cfi_startproc
	cmpl	$1, %esi
	jle	.L1470
	pushq	%r15
	.cfi_def_cfa_offset 16
	.cfi_offset 15, -16
	pushq	%r14
	.cfi_def_cfa_offset 24
	.cfi_offset 14, -24
	pushq	%r13
	.cfi_def_cfa_offset 32
	.cfi_offset 13, -32
	pushq	%r12
	.cfi_def_cfa_offset 40
	.cfi_offset 12, -40
	pushq	%rbp
	.cfi_def_cfa_offset 48
	.cfi_offset 6, -48
	pushq	%rbx
	.cfi_def_cfa_offset 56
	.cfi_offset 3, -56
	subq	$24, %rsp
	.cfi_def_cfa_offset 80
	movq	24(%rdi), %rbp
	movl	4(%rbp), %esi
	testl	%esi, %esi
	jle	.L1456
	xorl	%ebx, %ebx
	xorl	%r12d, %r12d
	movq	$-1, %r14
	.p2align 4,,10
	.p2align 3
.L1463:
	movq	64(%rbp), %rax
	movl	(%rax,%rbx), %ecx
	testl	%ecx, %ecx
	je	.L1458
	movq	72(%rbp), %rax
	addq	%rbx, %rax
	movl	(%rax), %edx
	testl	%edx, %edx
	je	.L1473
.L1458:
	addl	$1, %r12d
	addq	$4, %rbx
	cmpl	%r12d, 4(%rbp)
	jg	.L1463
.L1456:
	addq	$24, %rsp
	.cfi_remember_state
	.cfi_def_cfa_offset 56
	popq	%rbx
	.cfi_def_cfa_offset 48
	popq	%rbp
	.cfi_def_cfa_offset 40
	popq	%r12
	.cfi_def_cfa_offset 32
	popq	%r13
	.cfi_def_cfa_offset 24
	popq	%r14
	.cfi_def_cfa_offset 16
	popq	%r15
	.cfi_def_cfa_offset 8
	ret
	.p2align 4,,10
	.p2align 3
.L1473:
	.cfi_restore_state
	movq	80(%rbp), %rdx
	movl	$255, %esi
	movq	(%rdx,%rbx,2), %rcx
	movl	$1, (%rax)
	movl	8(%rcx), %eax
	movq	%rcx, 8(%rsp)
	leal	63(%rax), %r15d
	movq	40(%rbp), %rax
	sarl	$6, %r15d
	leal	0(,%r15,8), %edx
	movq	(%rax,%rbx,2), %rdi
	movslq	%r15d, %r15
	movslq	%edx, %r13
	movq	%r13, %rdx
	call	memset@PLT
	movq	8(%rsp), %rcx
	movq	32(%rbp), %rax
	movl	8(%rcx), %edi
	movq	(%rax,%rbx,2), %rsi
	leal	63(%rdi), %eax
	sarl	$6, %eax
	testl	%eax, %eax
	movl	%eax, %ecx
	jle	.L1459
	leal	-1(%rcx), %r9d
	leaq	8(%rsi), %r8
	movq	%rsi, %rax
	leaq	(%r8,%r9,8), %rdx
	.p2align 4,,10
	.p2align 3
.L1460:
	movq	%r14, (%rax)
	addq	$8, %rax
	cmpq	%rdx, %rax
	jne	.L1460
	movslq	%ecx, %rax
	movq	__masktab@GOTPCREL(%rip), %rcx
	movl	%edi, %edx
	andl	$63, %edx
	movq	(%rcx,%rdx,8), %rdi
	leaq	(%r9,%r15), %rcx
	andq	%rdi, -8(%rsi,%rax,8)
	leaq	(%rsi,%r13), %rdx
	leaq	(%r8,%rcx,8), %rcx
	.p2align 4,,10
	.p2align 3
.L1462:
	movq	%r14, (%rdx)
	addq	$8, %rdx
	cmpq	%rdx, %rcx
	jne	.L1462
.L1464:
	addq	%r15, %rax
	andq	%rdi, -8(%rsi,%rax,8)
	jmp	.L1458
	.p2align 4,,10
	.p2align 3
.L1470:
	.cfi_def_cfa_offset 8
	.cfi_restore 3
	.cfi_restore 6
	.cfi_restore 12
	.cfi_restore 13
	.cfi_restore 14
	.cfi_restore 15
	rep ret
	.p2align 4,,10
	.p2align 3
.L1459:
	.cfi_def_cfa_offset 80
	.cfi_offset 3, -56
	.cfi_offset 6, -48
	.cfi_offset 12, -40
	.cfi_offset 13, -32
	.cfi_offset 14, -24
	.cfi_offset 15, -16
	movq	__masktab@GOTPCREL(%rip), %rcx
	movl	%edi, %edx
	cltq
	andl	$63, %edx
	movq	(%rcx,%rdx,8), %rdi
	andq	%rdi, -8(%rsi,%rax,8)
	jmp	.L1464
	.cfi_endproc
.LFE237:
	.size	__asl_xprop_check_case_net_set, .-__asl_xprop_check_case_net_set
	.p2align 4,,15
	.globl	__asl_stmt_assign_to_accum_wide
	.type	__asl_stmt_assign_to_accum_wide, @function
__asl_stmt_assign_to_accum_wide:
.LFB238:
	.cfi_startproc
	movq	%rdx, %rax
	movq	16(%rdi), %rdi
	movq	%rcx, %rdx
	movq	24(%rsi), %rcx
	movq	%rax, %rsi
	jmp	__assign_lhsx_to_accum@PLT
	.cfi_endproc
.LFE238:
	.size	__asl_stmt_assign_to_accum_wide, .-__asl_stmt_assign_to_accum_wide
	.p2align 4,,15
	.globl	__asl_stmt_assign_to_accum_1w
	.type	__asl_stmt_assign_to_accum_1w, @function
__asl_stmt_assign_to_accum_1w:
.LFB239:
	.cfi_startproc
	subq	$24, %rsp
	.cfi_def_cfa_offset 32
	movq	16(%rdi), %rdi
	movq	%rcx, (%rsp)
	movq	24(%rsi), %rcx
	leaq	8(%rsp), %rsi
	movq	%rdx, 8(%rsp)
	movq	%rsp, %rdx
	call	__assign_lhsx_to_accum@PLT
	addq	$24, %rsp
	.cfi_def_cfa_offset 8
	ret
	.cfi_endproc
.LFE239:
	.size	__asl_stmt_assign_to_accum_1w, .-__asl_stmt_assign_to_accum_1w
	.p2align 4,,15
	.globl	__asl_stmt_assign_to_accum_1w_if_id
	.type	__asl_stmt_assign_to_accum_1w_if_id, @function
__asl_stmt_assign_to_accum_1w_if_id:
.LFB240:
	.cfi_startproc
	movq	24(%rsi), %rsi
	jmp	asl_loc_stmt_assign_to_accum_1w_id
	.cfi_endproc
.LFE240:
	.size	__asl_stmt_assign_to_accum_1w_if_id, .-__asl_stmt_assign_to_accum_1w_if_id
	.p2align 4,,15
	.globl	__asl_stmt_assign_to_accum_wide_if_id
	.type	__asl_stmt_assign_to_accum_wide_if_id, @function
__asl_stmt_assign_to_accum_wide_if_id:
.LFB241:
	.cfi_startproc
	movq	24(%rsi), %rsi
	jmp	asl_loc_stmt_assign_to_accum_wide_id
	.cfi_endproc
.LFE241:
	.size	__asl_stmt_assign_to_accum_wide_if_id, .-__asl_stmt_assign_to_accum_wide_if_id
	.p2align 4,,15
	.globl	__asl_stmt_assign_to_accum_wide_case_id
	.type	__asl_stmt_assign_to_accum_wide_case_id, @function
__asl_stmt_assign_to_accum_wide_case_id:
.LFB242:
	.cfi_startproc
	movq	24(%rsi), %rsi
	jmp	asl_loc_stmt_assign_to_accum_wide_id
	.cfi_endproc
.LFE242:
	.size	__asl_stmt_assign_to_accum_wide_case_id, .-__asl_stmt_assign_to_accum_wide_case_id
	.p2align 4,,15
	.globl	__asl_stmt_assign_to_accum_1w_case_id
	.type	__asl_stmt_assign_to_accum_1w_case_id, @function
__asl_stmt_assign_to_accum_1w_case_id:
.LFB243:
	.cfi_startproc
	movq	24(%rsi), %rsi
	jmp	asl_loc_stmt_assign_to_accum_1w_id
	.cfi_endproc
.LFE243:
	.size	__asl_stmt_assign_to_accum_1w_case_id, .-__asl_stmt_assign_to_accum_1w_case_id
	.p2align 4,,15
	.globl	__asl_set_xprop_accum_block_case
	.type	__asl_set_xprop_accum_block_case, @function
__asl_set_xprop_accum_block_case:
.LFB247:
	.cfi_startproc
	pushq	%r13
	.cfi_def_cfa_offset 16
	.cfi_offset 13, -16
	pushq	%r12
	.cfi_def_cfa_offset 24
	.cfi_offset 12, -24
	pushq	%rbp
	.cfi_def_cfa_offset 32
	.cfi_offset 6, -32
	pushq	%rbx
	.cfi_def_cfa_offset 40
	.cfi_offset 3, -40
	subq	$8, %rsp
	.cfi_def_cfa_offset 48
	movq	24(%rdi), %rbp
	movl	4(%rbp), %ecx
	orb	$32, 8(%rbp)
	movl	$0, 0(%rbp)
	testl	%ecx, %ecx
	jle	.L1481
	xorl	%ebx, %ebx
	xorl	%r12d, %r12d
	jmp	.L1484
	.p2align 4,,10
	.p2align 3
.L1483:
	addl	$1, %r12d
	addq	$4, %rbx
	cmpl	%r12d, 4(%rbp)
	jle	.L1481
.L1484:
	movq	80(%rbp), %rax
	movq	96(%rbp), %rdx
	movq	(%rax,%rbx,2), %rax
	movl	240(%rax), %ecx
	movl	%ecx, (%rdx,%rbx)
	movq	64(%rbp), %rdx
	movl	%r12d, 240(%rax)
	movl	$0, (%rdx,%rbx)
	movq	72(%rbp), %rdx
	movl	$0, (%rdx,%rbx)
	movq	16(%rbp), %rdx
	movl	(%rdx,%rbx), %edx
	testl	%edx, %edx
	jne	.L1483
	movl	8(%rax), %r13d
	movq	40(%rbp), %rax
	xorl	%esi, %esi
	addl	$1, %r12d
	addl	$63, %r13d
	movq	(%rax,%rbx,2), %rdi
	sarl	$6, %r13d
	sall	$3, %r13d
	movslq	%r13d, %r13
	movq	%r13, %rdx
	call	memset@PLT
	movq	48(%rbp), %rax
	xorl	%esi, %esi
	movq	%r13, %rdx
	movq	(%rax,%rbx,2), %rdi
	call	memset@PLT
	movq	56(%rbp), %rax
	xorl	%esi, %esi
	movq	%r13, %rdx
	movq	(%rax,%rbx,2), %rdi
	addq	$4, %rbx
	call	memset@PLT
	cmpl	%r12d, 4(%rbp)
	jg	.L1484
.L1481:
	addq	$8, %rsp
	.cfi_def_cfa_offset 40
	popq	%rbx
	.cfi_def_cfa_offset 32
	popq	%rbp
	.cfi_def_cfa_offset 24
	popq	%r12
	.cfi_def_cfa_offset 16
	popq	%r13
	.cfi_def_cfa_offset 8
	ret
	.cfi_endproc
.LFE247:
	.size	__asl_set_xprop_accum_block_case, .-__asl_set_xprop_accum_block_case
	.p2align 4,,15
	.globl	__asl_set_xprop_accum_block_if
	.type	__asl_set_xprop_accum_block_if, @function
__asl_set_xprop_accum_block_if:
.LFB248:
	.cfi_startproc
	pushq	%r13
	.cfi_def_cfa_offset 16
	.cfi_offset 13, -16
	pushq	%r12
	.cfi_def_cfa_offset 24
	.cfi_offset 12, -24
	pushq	%rbp
	.cfi_def_cfa_offset 32
	.cfi_offset 6, -32
	pushq	%rbx
	.cfi_def_cfa_offset 40
	.cfi_offset 3, -40
	subq	$8, %rsp
	.cfi_def_cfa_offset 48
	movq	24(%rdi), %rbp
	movl	4(%rbp), %ecx
	orb	$32, 8(%rbp)
	movl	$0, 0(%rbp)
	testl	%ecx, %ecx
	jle	.L1487
	xorl	%ebx, %ebx
	xorl	%r12d, %r12d
	jmp	.L1490
	.p2align 4,,10
	.p2align 3
.L1489:
	addl	$1, %r12d
	addq	$4, %rbx
	cmpl	%r12d, 4(%rbp)
	jle	.L1487
.L1490:
	movq	80(%rbp), %rax
	movq	96(%rbp), %rdx
	movq	(%rax,%rbx,2), %rax
	movl	240(%rax), %ecx
	movl	%ecx, (%rdx,%rbx)
	movq	64(%rbp), %rdx
	movl	%r12d, 240(%rax)
	movl	$0, (%rdx,%rbx)
	movq	72(%rbp), %rdx
	movl	$0, (%rdx,%rbx)
	movq	16(%rbp), %rdx
	movl	(%rdx,%rbx), %edx
	testl	%edx, %edx
	jne	.L1489
	movl	8(%rax), %r13d
	movq	40(%rbp), %rax
	xorl	%esi, %esi
	addl	$1, %r12d
	addl	$63, %r13d
	movq	(%rax,%rbx,2), %rdi
	sarl	$6, %r13d
	sall	$3, %r13d
	movslq	%r13d, %r13
	movq	%r13, %rdx
	call	memset@PLT
	movq	48(%rbp), %rax
	xorl	%esi, %esi
	movq	%r13, %rdx
	movq	(%rax,%rbx,2), %rdi
	call	memset@PLT
	movq	56(%rbp), %rax
	xorl	%esi, %esi
	movq	%r13, %rdx
	movq	(%rax,%rbx,2), %rdi
	addq	$4, %rbx
	call	memset@PLT
	cmpl	%r12d, 4(%rbp)
	jg	.L1490
.L1487:
	addq	$8, %rsp
	.cfi_def_cfa_offset 40
	popq	%rbx
	.cfi_def_cfa_offset 32
	popq	%rbp
	.cfi_def_cfa_offset 24
	popq	%r12
	.cfi_def_cfa_offset 16
	popq	%r13
	.cfi_def_cfa_offset 8
	ret
	.cfi_endproc
.LFE248:
	.size	__asl_set_xprop_accum_block_if, .-__asl_set_xprop_accum_block_if
	.p2align 4,,15
	.globl	__asl_set_restore_xprop_accum_block
	.type	__asl_set_restore_xprop_accum_block, @function
__asl_set_restore_xprop_accum_block:
.LFB249:
	.cfi_startproc
	movq	24(%rdi), %rdi
	jmp	asl_loc_set_restore_xprop_accum_block
	.cfi_endproc
.LFE249:
	.size	__asl_set_restore_xprop_accum_block, .-__asl_set_restore_xprop_accum_block
	.p2align 4,,15
	.globl	__asl_set_restore_xprop_accum_toself
	.type	__asl_set_restore_xprop_accum_toself, @function
__asl_set_restore_xprop_accum_toself:
.LFB250:
	.cfi_startproc
	movq	24(%rdi), %rdi
	xorl	%esi, %esi
	jmp	asl_loc_set_restore_xprop_accum_block_selfv
	.cfi_endproc
.LFE250:
	.size	__asl_set_restore_xprop_accum_toself, .-__asl_set_restore_xprop_accum_toself
	.p2align 4,,15
	.globl	__asl_set_restore_xprop_accum_block_nodefault
	.type	__asl_set_restore_xprop_accum_block_nodefault, @function
__asl_set_restore_xprop_accum_block_nodefault:
.LFB251:
	.cfi_startproc
	xorl	%r8d, %r8d
	movq	24(%rdi), %rdi
	cmpl	$1, %esi
	movl	$1, %eax
	movl	%edx, %ecx
	setg	%r8b
	sall	%cl, %eax
	cmpl	%esi, %eax
	movl	%r8d, (%rdi)
	movl	%r8d, %esi
	jg	.L1497
	jmp	asl_loc_set_restore_xprop_accum_block
	.p2align 4,,10
	.p2align 3
.L1497:
	jmp	asl_loc_set_restore_xprop_accum_block_selfv
	.cfi_endproc
.LFE251:
	.size	__asl_set_restore_xprop_accum_block_nodefault, .-__asl_set_restore_xprop_accum_block_nodefault
	.p2align 4,,15
	.globl	__asl_set_xprop_accum_init
	.type	__asl_set_xprop_accum_init, @function
__asl_set_xprop_accum_init:
.LFB255:
	.cfi_startproc
	movzbl	6(%rdi), %ecx
	movq	232(%rdi), %rax
	testb	$4, %cl
	je	.L1501
	orq	8(%rax), %rdx
	movq	(%rax), %rcx
	xorq	%rsi, %rcx
	orq	%rcx, %rdx
	orq	%rdx, %rsi
	movq	%rdx, 8(%rax)
	movq	%rsi, (%rax)
	ret
	.p2align 4,,10
	.p2align 3
.L1501:
	orl	$4, %ecx
	movb	%cl, 6(%rdi)
	movq	%rsi, (%rax)
	movq	%rdx, 8(%rax)
	ret
	.cfi_endproc
.LFE255:
	.size	__asl_set_xprop_accum_init, .-__asl_set_xprop_accum_init
	.p2align 4,,15
	.globl	__asl_set_xprop_accum_init_wide
	.type	__asl_set_xprop_accum_init_wide, @function
__asl_set_xprop_accum_init_wide:
.LFB256:
	.cfi_startproc
	movl	8(%rdi), %r10d
	movzbl	6(%rdi), %eax
	movq	232(%rdi), %r8
	leal	63(%r10), %edx
	sarl	$6, %edx
	testb	$4, %al
	je	.L1509
	movslq	%edx, %rax
	testl	%edx, %edx
	pushq	%rbx
	.cfi_def_cfa_offset 16
	.cfi_offset 3, -16
	leaq	0(,%rax,8), %r9
	leaq	(%r8,%r9), %rdi
	jle	.L1504
	leal	-1(%rdx), %eax
	leaq	(%rsi,%r9), %r11
	leaq	8(,%rax,8), %rbx
	xorl	%eax, %eax
	.p2align 4,,10
	.p2align 3
.L1505:
	movq	(%r11,%rax), %rdx
	movq	(%r8,%rax), %rcx
	orq	(%rdi,%rax), %rdx
	xorq	(%rsi,%rax), %rcx
	orq	%rcx, %rdx
	movq	%rdx, (%rdi,%rax)
	orq	(%rsi,%rax), %rdx
	movq	%rdx, (%r8,%rax)
	addq	$8, %rax
	cmpq	%rax, %rbx
	jne	.L1505
.L1504:
	movq	__masktab@GOTPCREL(%rip), %rdx
	leaq	-8(%r9), %rax
	andl	$63, %r10d
	movq	(%rdx,%r10,8), %rdx
	andq	%rdx, (%r8,%rax)
	andq	%rdx, (%rdi,%rax)
	popq	%rbx
	.cfi_def_cfa_offset 8
	ret
	.p2align 4,,10
	.p2align 3
.L1509:
	.cfi_restore 3
	orl	$4, %eax
	sall	$4, %edx
	movb	%al, 6(%rdi)
	movslq	%edx, %rdx
	movq	%r8, %rdi
	jmp	memcpy@PLT
	.cfi_endproc
.LFE256:
	.size	__asl_set_xprop_accum_init_wide, .-__asl_set_xprop_accum_init_wide
	.p2align 4,,15
	.globl	__asl_xprop_accum_to_self
	.type	__asl_xprop_accum_to_self, @function
__asl_xprop_accum_to_self:
.LFB257:
	.cfi_startproc
	testb	$4, 6(%rdi)
	je	.L1510
	movq	232(%rdi), %rax
	movq	8(%rax), %rcx
	orq	%rdx, %rcx
	movq	(%rax), %rdx
	xorq	%rsi, %rdx
	orq	%rcx, %rdx
	orq	%rdx, %rsi
	movq	%rdx, 8(%rax)
	movq	%rsi, (%rax)
.L1510:
	rep ret
	.cfi_endproc
.LFE257:
	.size	__asl_xprop_accum_to_self, .-__asl_xprop_accum_to_self
	.p2align 4,,15
	.globl	__asl_xprop_accum_to_self_wide
	.type	__asl_xprop_accum_to_self_wide, @function
__asl_xprop_accum_to_self_wide:
.LFB258:
	.cfi_startproc
	testb	$4, 6(%rdi)
	je	.L1524
	pushq	%rbx
	.cfi_def_cfa_offset 16
	.cfi_offset 3, -16
	movl	8(%rdi), %ebx
	movq	232(%rdi), %rdi
	leal	63(%rbx), %edx
	sarl	$6, %edx
	movslq	%edx, %rax
	testl	%edx, %edx
	leaq	0(,%rax,8), %r9
	leaq	(%rdi,%r9), %r8
	jle	.L1517
	leal	-1(%rdx), %eax
	leaq	(%rsi,%r9), %r10
	leaq	8(,%rax,8), %r11
	xorl	%eax, %eax
	.p2align 4,,10
	.p2align 3
.L1518:
	movq	(%r10,%rax), %rdx
	movq	(%rdi,%rax), %rcx
	orq	(%r8,%rax), %rdx
	xorq	(%rsi,%rax), %rcx
	orq	%rcx, %rdx
	movq	%rdx, (%r8,%rax)
	orq	(%rsi,%rax), %rdx
	movq	%rdx, (%rdi,%rax)
	addq	$8, %rax
	cmpq	%rax, %r11
	jne	.L1518
.L1517:
	movq	__masktab@GOTPCREL(%rip), %rdx
	leaq	-8(%r9), %rax
	andl	$63, %ebx
	movq	(%rdx,%rbx,8), %rdx
	andq	%rdx, (%rdi,%rax)
	andq	%rdx, (%r8,%rax)
	popq	%rbx
	.cfi_def_cfa_offset 8
	ret
	.p2align 4,,10
	.p2align 3
.L1524:
	.cfi_restore 3
	rep ret
	.cfi_endproc
.LFE258:
	.size	__asl_xprop_accum_to_self_wide, .-__asl_xprop_accum_to_self_wide
	.p2align 4,,15
	.globl	__asl_xprop_xedge_net
	.type	__asl_xprop_xedge_net, @function
__asl_xprop_xedge_net:
.LFB259:
	.cfi_startproc
	movq	__idp@GOTPCREL(%rip), %rax
	movq	24(%rdi), %rcx
	movq	(%rax), %rax
	movq	112(%rcx), %rsi
	movslq	(%rax), %rdx
	leaq	(%rsi,%rdx,8), %rdi
	movq	(%rdi), %rsi
	testq	%rsi, %rsi
	je	.L1529
	movq	120(%rcx), %rcx
	movq	32(%rsi), %rsi
	movq	$0, (%rdi)
	movzbl	(%rcx,%rdx), %edx
	leaq	(%rax,%rsi,8), %rax
	movq	(%rax), %rsi
	movq	%rdx, (%rax)
#APP
# 6473 "v_aslib.c" 1
	movq %rsi, %rcx
# 0 "" 2
#NO_APP
	ret
	.p2align 4,,10
	.p2align 3
.L1529:
	xorl	%eax, %eax
	ret
	.cfi_endproc
.LFE259:
	.size	__asl_xprop_xedge_net, .-__asl_xprop_xedge_net
	.p2align 4,,15
	.globl	__asl_xprop_set_xedge_net
	.type	__asl_xprop_set_xedge_net, @function
__asl_xprop_set_xedge_net:
.LFB260:
	.cfi_startproc
	movq	__idp@GOTPCREL(%rip), %rax
	movq	24(%rdi), %rcx
	movq	(%rax), %rax
	movq	112(%rcx), %rdi
	movq	120(%rcx), %rcx
	movslq	(%rax), %rax
	movq	%rsi, (%rdi,%rax,8)
	movb	%dl, (%rcx,%rax)
	ret
	.cfi_endproc
.LFE260:
	.size	__asl_xprop_set_xedge_net, .-__asl_xprop_set_xedge_net
	.p2align 4,,15
	.globl	__asl_get_xprop_accum
	.type	__asl_get_xprop_accum, @function
__asl_get_xprop_accum:
.LFB261:
	.cfi_startproc
	movzbl	6(%rdi), %eax
	testb	$4, %al
	je	.L1533
	andl	$-5, %eax
	movb	%al, 6(%rdi)
	movq	232(%rdi), %rax
	ret
	.p2align 4,,10
	.p2align 3
.L1533:
	xorl	%eax, %eax
	ret
	.cfi_endproc
.LFE261:
	.size	__asl_get_xprop_accum, .-__asl_get_xprop_accum
	.p2align 4,,15
	.globl	__asl_per_bit_xprop_accum
	.type	__asl_per_bit_xprop_accum, @function
__asl_per_bit_xprop_accum:
.LFB262:
	.cfi_startproc
	pushq	%r15
	.cfi_def_cfa_offset 16
	.cfi_offset 15, -16
	pushq	%r14
	.cfi_def_cfa_offset 24
	.cfi_offset 14, -24
	pushq	%r13
	.cfi_def_cfa_offset 32
	.cfi_offset 13, -32
	pushq	%r12
	.cfi_def_cfa_offset 40
	.cfi_offset 12, -40
	pushq	%rbp
	.cfi_def_cfa_offset 48
	.cfi_offset 6, -48
	pushq	%rbx
	.cfi_def_cfa_offset 56
	.cfi_offset 3, -56
	movslq	%esi, %rbx
	subq	$40, %rsp
	.cfi_def_cfa_offset 96
	movq	24(%rdi), %r13
	movq	80(%r13), %rax
	movq	(%rax,%rbx,8), %r15
	movzbl	6(%r15), %eax
	testb	$4, %al
	jne	.L1547
.L1535:
	xorl	%eax, %eax
.L1534:
	addq	$40, %rsp
	.cfi_remember_state
	.cfi_def_cfa_offset 56
	popq	%rbx
	.cfi_def_cfa_offset 48
	popq	%rbp
	.cfi_def_cfa_offset 40
	popq	%r12
	.cfi_def_cfa_offset 32
	popq	%r13
	.cfi_def_cfa_offset 24
	popq	%r14
	.cfi_def_cfa_offset 16
	popq	%r15
	.cfi_def_cfa_offset 8
	ret
	.p2align 4,,10
	.p2align 3
.L1547:
	.cfi_restore_state
	andl	$-5, %eax
	movq	%rdx, %r12
	movq	232(%r15), %r14
	movb	%al, 6(%r15)
	movl	8(%r15), %eax
	movq	%r12, %rdi
	leal	63(%rax), %ebp
	sarl	$6, %ebp
	movslq	%ebp, %rbp
	salq	$3, %rbp
	leaq	(%rdx,%rbp), %rax
	movq	%r15, %rdx
	movq	%rax, %rsi
	movq	%rax, 16(%rsp)
	call	__ld_wire_val_wrds@PLT
	movq	40(%r13), %rax
	movq	(%rax,%rbx,8), %r13
	movl	8(%r15), %eax
	testl	%eax, %eax
	jle	.L1535
	leaq	(%r14,%rbp), %rdi
	xorl	%eax, %eax
	xorl	%ebx, %ebx
	movq	%rdi, 24(%rsp)
	jmp	.L1537
	.p2align 4,,10
	.p2align 3
.L1536:
	addl	$1, %ebx
	cmpl	%ebx, 8(%r15)
	jle	.L1534
.L1537:
	movl	%ebx, %esi
	movl	%ebx, %ecx
	sarl	$6, %esi
	andl	$63, %ecx
	movslq	%esi, %rsi
	movq	0(%r13,%rsi,8), %rdx
	leaq	0(,%rsi,8), %rbp
	btq	%rcx, %rdx
	jnc	.L1536
	movq	(%r14,%rsi,8), %rdx
	movq	%r12, %rdi
	movl	%ebx, %esi
	movl	%ecx, 12(%rsp)
	shrq	%cl, %rdx
	andl	$1, %edx
	call	__lhsbsel@PLT
	movq	24(%rsp), %rax
	movl	12(%rsp), %ecx
	movl	%ebx, %esi
	movq	16(%rsp), %rdi
	movq	(%rax,%rbp), %rdx
	shrq	%cl, %rdx
	andl	$1, %edx
	call	__lhsbsel@PLT
	movl	$1, %eax
	jmp	.L1536
	.cfi_endproc
.LFE262:
	.size	__asl_per_bit_xprop_accum, .-__asl_per_bit_xprop_accum
	.p2align 4,,15
	.globl	__asl_trace_xprop_write
	.type	__asl_trace_xprop_write, @function
__asl_trace_xprop_write:
.LFB263:
	.cfi_startproc
	subq	$24, %rsp
	.cfi_def_cfa_offset 32
	movq	%rsi, 8(%rsp)
	leaq	8(%rsp), %rsi
	movq	%rdx, (%rsp)
	movq	%rsp, %rdx
	call	__trace_xprop_stmt_write@PLT
	addq	$24, %rsp
	.cfi_def_cfa_offset 8
	ret
	.cfi_endproc
.LFE263:
	.size	__asl_trace_xprop_write, .-__asl_trace_xprop_write
	.p2align 4,,15
	.globl	__asl_trace_xprop_write_wide
	.type	__asl_trace_xprop_write_wide, @function
__asl_trace_xprop_write_wide:
.LFB264:
	.cfi_startproc
	jmp	__trace_xprop_stmt_write@PLT
	.cfi_endproc
.LFE264:
	.size	__asl_trace_xprop_write_wide, .-__asl_trace_xprop_write_wide
	.globl	__popcountdi2
	.p2align 4,,15
	.globl	__asl_popcount_wide
	.type	__asl_popcount_wide, @function
__asl_popcount_wide:
.LFB265:
	.cfi_startproc
	testl	%esi, %esi
	pushq	%r12
	.cfi_def_cfa_offset 16
	.cfi_offset 12, -16
	pushq	%rbp
	.cfi_def_cfa_offset 24
	.cfi_offset 6, -24
	pushq	%rbx
	.cfi_def_cfa_offset 32
	.cfi_offset 3, -32
	jle	.L1554
	leal	-1(%rsi), %eax
	movq	%rdi, %rbx
	xorl	%ebp, %ebp
	leaq	8(%rdi,%rax,8), %r12
	.p2align 4,,10
	.p2align 3
.L1553:
	movq	(%rbx), %rdi
	addq	$8, %rbx
	call	__popcountdi2@PLT
	addl	%eax, %ebp
	cmpq	%r12, %rbx
	jne	.L1553
	movl	%ebp, %eax
	popq	%rbx
	.cfi_remember_state
	.cfi_def_cfa_offset 24
	popq	%rbp
	.cfi_def_cfa_offset 16
	popq	%r12
	.cfi_def_cfa_offset 8
	ret
	.p2align 4,,10
	.p2align 3
.L1554:
	.cfi_restore_state
	xorl	%ebp, %ebp
	movl	%ebp, %eax
	popq	%rbx
	.cfi_def_cfa_offset 24
	popq	%rbp
	.cfi_def_cfa_offset 16
	popq	%r12
	.cfi_def_cfa_offset 8
	ret
	.cfi_endproc
.LFE265:
	.size	__asl_popcount_wide, .-__asl_popcount_wide
	.p2align 4,,15
	.globl	__asl_wid_bin_bitxnor
	.type	__asl_wid_bin_bitxnor, @function
__asl_wid_bin_bitxnor:
.LFB266:
	.cfi_startproc
	leal	63(%rcx), %eax
	pushq	%r12
	.cfi_def_cfa_offset 16
	.cfi_offset 12, -16
	pushq	%rbp
	.cfi_def_cfa_offset 24
	.cfi_offset 6, -24
	pushq	%rbx
	.cfi_def_cfa_offset 32
	.cfi_offset 3, -32
	sarl	$6, %eax
	movslq	%eax, %r11
	salq	$3, %r11
	testl	%eax, %eax
	leaq	(%rdi,%r11), %rbx
	jle	.L1558
	subl	$1, %eax
	leaq	(%rsi,%r11), %rbp
	leaq	(%rdx,%r11), %r10
	leaq	8(,%rax,8), %r12
	xorl	%eax, %eax
	jmp	.L1561
	.p2align 4,,10
	.p2align 3
.L1564:
	movq	$0, (%rbx,%rax)
	movq	(%rsi,%rax), %r8
	xorq	(%rdx,%rax), %r8
	notq	%r8
	movq	%r8, (%rdi,%rax)
	addq	$8, %rax
	cmpq	%rax, %r12
	je	.L1558
.L1561:
	movq	0(%rbp,%rax), %r8
	orq	(%r10,%rax), %r8
	je	.L1564
	movq	%r8, (%rbx,%rax)
	movq	(%rsi,%rax), %r9
	xorq	(%rdx,%rax), %r9
	notq	%r9
	orq	%r9, %r8
	movq	%r8, (%rdi,%rax)
	addq	$8, %rax
	cmpq	%rax, %r12
	jne	.L1561
.L1558:
	movq	__masktab@GOTPCREL(%rip), %rax
	andl	$63, %ecx
	movq	(%rax,%rcx,8), %rax
	andq	%rax, -8(%rdi,%r11)
	popq	%rbx
	.cfi_def_cfa_offset 24
	popq	%rbp
	.cfi_def_cfa_offset 16
	popq	%r12
	.cfi_def_cfa_offset 8
	ret
	.cfi_endproc
.LFE266:
	.size	__asl_wid_bin_bitxnor, .-__asl_wid_bin_bitxnor
	.p2align 4,,15
	.globl	__asl_wid_bin_bitxnor_2state
	.type	__asl_wid_bin_bitxnor_2state, @function
__asl_wid_bin_bitxnor_2state:
.LFB267:
	.cfi_startproc
	leal	63(%rcx), %r9d
	sarl	$6, %r9d
	testl	%r9d, %r9d
	jle	.L1566
	leal	-1(%r9), %eax
	leaq	8(,%rax,8), %r10
	xorl	%eax, %eax
	.p2align 4,,10
	.p2align 3
.L1567:
	movq	(%rsi,%rax), %r8
	xorq	(%rdx,%rax), %r8
	notq	%r8
	movq	%r8, (%rdi,%rax)
	addq	$8, %rax
	cmpq	%rax, %r10
	jne	.L1567
.L1566:
	movq	__masktab@GOTPCREL(%rip), %rax
	movslq	%r9d, %r9
	andl	$63, %ecx
	movq	(%rax,%rcx,8), %rax
	andq	%rax, -8(%rdi,%r9,8)
	ret
	.cfi_endproc
.LFE267:
	.size	__asl_wid_bin_bitxnor_2state, .-__asl_wid_bin_bitxnor_2state
	.p2align 4,,15
	.globl	__asl_wid_bin_bitor
	.type	__asl_wid_bin_bitor, @function
__asl_wid_bin_bitor:
.LFB268:
	.cfi_startproc
	leal	63(%rcx), %eax
	pushq	%r14
	.cfi_def_cfa_offset 16
	.cfi_offset 14, -16
	pushq	%r13
	.cfi_def_cfa_offset 24
	.cfi_offset 13, -24
	pushq	%r12
	.cfi_def_cfa_offset 32
	.cfi_offset 12, -32
	pushq	%rbp
	.cfi_def_cfa_offset 40
	.cfi_offset 6, -40
	sarl	$6, %eax
	pushq	%rbx
	.cfi_def_cfa_offset 48
	.cfi_offset 3, -48
	movslq	%eax, %r10
	salq	$3, %r10
	testl	%eax, %eax
	leaq	(%rdi,%r10), %r11
	jle	.L1570
	subl	$1, %eax
	leaq	(%rsi,%r10), %rbp
	leaq	(%rdx,%r10), %rbx
	leaq	8(,%rax,8), %r12
	xorl	%eax, %eax
	jmp	.L1573
	.p2align 4,,10
	.p2align 3
.L1576:
	movq	$0, (%r11,%rax)
	movq	(%rsi,%rax), %r8
	orq	(%rdx,%rax), %r8
	movq	%r8, (%rdi,%rax)
	addq	$8, %rax
	cmpq	%rax, %r12
	je	.L1570
.L1573:
	movq	0(%rbp,%rax), %r9
	movq	(%rbx,%rax), %r13
	movq	%r9, %r14
	orq	%r13, %r14
	je	.L1576
	movq	(%rdx,%rax), %r8
	movq	(%rsi,%rax), %r14
	andq	%r9, %r8
	orq	%r9, %r14
	xorq	%r13, %r9
	orq	%r13, %r8
	andq	%r14, %r8
	xorq	%r9, %r8
	movq	%r8, (%r11,%rax)
	movq	(%rdx,%rax), %r9
	orq	(%rsi,%rax), %r9
	orq	%r9, %r8
	movq	%r8, (%rdi,%rax)
	addq	$8, %rax
	cmpq	%rax, %r12
	jne	.L1573
.L1570:
	movq	__masktab@GOTPCREL(%rip), %rax
	subq	$8, %r10
	andl	$63, %ecx
	movq	(%rax,%rcx,8), %rax
	andq	%rax, (%rdi,%r10)
	andq	%rax, (%r11,%r10)
	popq	%rbx
	.cfi_def_cfa_offset 40
	popq	%rbp
	.cfi_def_cfa_offset 32
	popq	%r12
	.cfi_def_cfa_offset 24
	popq	%r13
	.cfi_def_cfa_offset 16
	popq	%r14
	.cfi_def_cfa_offset 8
	ret
	.cfi_endproc
.LFE268:
	.size	__asl_wid_bin_bitor, .-__asl_wid_bin_bitor
	.p2align 4,,15
	.globl	__asl_wid_un_redor
	.type	__asl_wid_un_redor, @function
__asl_wid_un_redor:
.LFB269:
	.cfi_startproc
	pushq	%r13
	.cfi_def_cfa_offset 16
	.cfi_offset 13, -16
	pushq	%r12
	.cfi_def_cfa_offset 24
	.cfi_offset 12, -24
	leal	63(%rsi), %r12d
	pushq	%rbp
	.cfi_def_cfa_offset 32
	.cfi_offset 6, -32
	pushq	%rbx
	.cfi_def_cfa_offset 40
	.cfi_offset 3, -40
	movq	%rdi, %rbx
	sarl	$6, %r12d
	subq	$8, %rsp
	.cfi_def_cfa_offset 48
	movslq	%r12d, %rax
	cmpl	$64, %esi
	leaq	(%rdi,%rax,8), %rbp
	jg	.L1578
	cmpq	$0, 0(%rbp)
	je	.L1590
.L1580:
	testl	%r12d, %r12d
	jle	.L1587
	movq	0(%rbp), %rax
	notq	%rax
	testq	%rax, (%rbx)
	jne	.L1588
	leal	-1(%r12), %eax
	movl	$8, %edx
	leaq	8(,%rax,8), %rcx
	jmp	.L1585
	.p2align 4,,10
	.p2align 3
.L1584:
	movq	0(%rbp,%rdx), %rax
	notq	%rax
	andq	(%rbx,%rdx), %rax
	addq	$8, %rdx
	testq	%rax, %rax
	jne	.L1588
.L1585:
	cmpq	%rcx, %rdx
	jne	.L1584
.L1587:
	addq	$8, %rsp
	.cfi_remember_state
	.cfi_def_cfa_offset 40
	movl	$3, %eax
	popq	%rbx
	.cfi_def_cfa_offset 32
	popq	%rbp
	.cfi_def_cfa_offset 24
	popq	%r12
	.cfi_def_cfa_offset 16
	popq	%r13
	.cfi_def_cfa_offset 8
	ret
	.p2align 4,,10
	.p2align 3
.L1590:
	.cfi_restore_state
	cmpq	$0, (%rdi)
	setne	%al
.L1582:
	addq	$8, %rsp
	.cfi_remember_state
	.cfi_def_cfa_offset 40
	movzbl	%al, %eax
	popq	%rbx
	.cfi_def_cfa_offset 32
	popq	%rbp
	.cfi_def_cfa_offset 24
	popq	%r12
	.cfi_def_cfa_offset 16
	popq	%r13
	.cfi_def_cfa_offset 8
	ret
	.p2align 4,,10
	.p2align 3
.L1578:
	.cfi_restore_state
	movq	%rbp, %rdi
	movl	%esi, %r13d
	call	__wide_vval_is0@PLT
	testl	%eax, %eax
	je	.L1580
	movl	%r13d, %esi
	movq	%rbx, %rdi
	call	__wide_vval_is0@PLT
	testl	%eax, %eax
	sete	%al
	jmp	.L1582
	.p2align 4,,10
	.p2align 3
.L1588:
	addq	$8, %rsp
	.cfi_def_cfa_offset 40
	movl	$1, %eax
	popq	%rbx
	.cfi_def_cfa_offset 32
	popq	%rbp
	.cfi_def_cfa_offset 24
	popq	%r12
	.cfi_def_cfa_offset 16
	popq	%r13
	.cfi_def_cfa_offset 8
	ret
	.cfi_endproc
.LFE269:
	.size	__asl_wid_un_redor, .-__asl_wid_un_redor
	.p2align 4,,15
	.globl	__asl_wid_unbitnot
	.type	__asl_wid_unbitnot, @function
__asl_wid_unbitnot:
.LFB270:
	.cfi_startproc
	leal	63(%rdx), %eax
	sarl	$6, %eax
	movslq	%eax, %r10
	salq	$3, %r10
	testl	%eax, %eax
	jle	.L1592
	subl	$1, %eax
	leaq	(%rsi,%r10), %r8
	leaq	8(,%rax,8), %r9
	xorl	%eax, %eax
	.p2align 4,,10
	.p2align 3
.L1593:
	movq	(%rsi,%rax), %rcx
	notq	%rcx
	orq	(%r8,%rax), %rcx
	movq	%rcx, (%rdi,%rax)
	addq	$8, %rax
	cmpq	%rax, %r9
	jne	.L1593
.L1592:
	movq	__masktab@GOTPCREL(%rip), %rax
	andl	$63, %edx
	movq	(%rax,%rdx,8), %rax
	andq	%rax, -8(%rdi,%r10)
	ret
	.cfi_endproc
.LFE270:
	.size	__asl_wid_unbitnot, .-__asl_wid_unbitnot
	.p2align 4,,15
	.globl	__asl_wid_unbitnot_2state
	.type	__asl_wid_unbitnot_2state, @function
__asl_wid_unbitnot_2state:
.LFB271:
	.cfi_startproc
	leal	63(%rdx), %r8d
	sarl	$6, %r8d
	testl	%r8d, %r8d
	jle	.L1596
	leal	-1(%r8), %eax
	leaq	8(,%rax,8), %r9
	xorl	%eax, %eax
	.p2align 4,,10
	.p2align 3
.L1597:
	movq	(%rsi,%rax), %rcx
	notq	%rcx
	movq	%rcx, (%rdi,%rax)
	addq	$8, %rax
	cmpq	%rax, %r9
	jne	.L1597
.L1596:
	movq	__masktab@GOTPCREL(%rip), %rax
	movslq	%r8d, %r8
	andl	$63, %edx
	movq	(%rax,%rdx,8), %rax
	andq	%rax, -8(%rdi,%r8,8)
	ret
	.cfi_endproc
.LFE271:
	.size	__asl_wid_unbitnot_2state, .-__asl_wid_unbitnot_2state
	.p2align 4,,15
	.globl	__asl_wide_bitor
	.type	__asl_wide_bitor, @function
__asl_wide_bitor:
.LFB272:
	.cfi_startproc
	testl	%ecx, %ecx
	jle	.L1599
	leal	-1(%rcx), %eax
	leaq	8(,%rax,8), %r8
	xorl	%eax, %eax
	.p2align 4,,10
	.p2align 3
.L1601:
	movq	(%rsi,%rax), %rcx
	orq	(%rdx,%rax), %rcx
	movq	%rcx, (%rdi,%rax)
	addq	$8, %rax
	cmpq	%rax, %r8
	jne	.L1601
.L1599:
	rep ret
	.cfi_endproc
.LFE272:
	.size	__asl_wide_bitor, .-__asl_wide_bitor
	.p2align 4,,15
	.globl	__asl_widomitxz_ne
	.type	__asl_widomitxz_ne, @function
__asl_widomitxz_ne:
.LFB273:
	.cfi_startproc
	movslq	%edx, %rcx
	salq	$3, %rcx
	subl	$1, %edx
	js	.L1607
	leaq	-8(%rcx), %rax
	movslq	%edx, %r9
	leaq	(%rcx,%rax), %r10
	movq	(%rdi,%r10), %r8
	orq	(%rsi,%r10), %r8
	movq	-8(%rdi,%rcx), %r10
	orq	%r8, %r10
	orq	-8(%rsi,%rcx), %r8
	cmpq	%r8, %r10
	jne	.L1609
	movl	%edx, %edx
	leaq	(%rdi,%rcx), %r10
	addq	%rsi, %rcx
	subq	%rdx, %r9
	salq	$3, %r9
	jmp	.L1605
	.p2align 4,,10
	.p2align 3
.L1606:
	movq	-8(%r10,%rax), %rdx
	orq	-8(%rcx,%rax), %rdx
	movq	-8(%rdi,%rax), %r8
	orq	%rdx, %r8
	orq	-8(%rsi,%rax), %rdx
	subq	$8, %rax
	cmpq	%rdx, %r8
	jne	.L1609
.L1605:
	cmpq	%r9, %rax
	jne	.L1606
.L1607:
	movl	$1, %eax
	ret
	.p2align 4,,10
	.p2align 3
.L1609:
	xorl	%eax, %eax
	ret
	.cfi_endproc
.LFE273:
	.size	__asl_widomitxz_ne, .-__asl_widomitxz_ne
	.section	.rodata.str1.8
	.align 8
.LC16:
	.string	"real divide by zero results in NaN"
	.text
	.p2align 4,,15
	.globl	__asl_real_div0_warning
	.type	__asl_real_div0_warning, @function
__asl_real_div0_warning:
.LFB274:
	.cfi_startproc
	pushq	%r13
	.cfi_def_cfa_offset 16
	.cfi_offset 13, -16
	pushq	%r12
	.cfi_def_cfa_offset 24
	.cfi_offset 12, -24
	leaq	.LC16(%rip), %rsi
	pushq	%rbp
	.cfi_def_cfa_offset 32
	.cfi_offset 6, -32
	pushq	%rbx
	.cfi_def_cfa_offset 40
	.cfi_offset 3, -40
	subq	$8, %rsp
	.cfi_def_cfa_offset 48
	movzwl	4(%rdi), %eax
	movq	__sfnam_ind@GOTPCREL(%rip), %rbp
	movq	__slin_cnt@GOTPCREL(%rip), %rbx
	movl	0(%rbp), %r13d
	movl	%eax, 0(%rbp)
	movl	8(%rdi), %eax
	movl	$641, %edi
	movl	(%rbx), %r12d
	movl	%eax, (%rbx)
	xorl	%eax, %eax
	call	__sgfwarn@PLT
	movl	%r13d, 0(%rbp)
	movl	%r12d, (%rbx)
	addq	$8, %rsp
	.cfi_def_cfa_offset 40
	popq	%rbx
	.cfi_def_cfa_offset 32
	popq	%rbp
	.cfi_def_cfa_offset 24
	popq	%r12
	.cfi_def_cfa_offset 16
	popq	%r13
	.cfi_def_cfa_offset 8
	ret
	.cfi_endproc
.LFE274:
	.size	__asl_real_div0_warning, .-__asl_real_div0_warning
	.section	.rodata.str1.8
	.align 8
.LC17:
	.string	"?: operator select condition x/z but values are real - 0.0 returned"
	.text
	.p2align 4,,15
	.globl	__asl_real_qcol_warning
	.type	__asl_real_qcol_warning, @function
__asl_real_qcol_warning:
.LFB275:
	.cfi_startproc
	pushq	%r13
	.cfi_def_cfa_offset 16
	.cfi_offset 13, -16
	pushq	%r12
	.cfi_def_cfa_offset 24
	.cfi_offset 12, -24
	leaq	.LC17(%rip), %rsi
	pushq	%rbp
	.cfi_def_cfa_offset 32
	.cfi_offset 6, -32
	pushq	%rbx
	.cfi_def_cfa_offset 40
	.cfi_offset 3, -40
	subq	$8, %rsp
	.cfi_def_cfa_offset 48
	movzwl	4(%rdi), %eax
	movq	__sfnam_ind@GOTPCREL(%rip), %rbp
	movq	__slin_cnt@GOTPCREL(%rip), %rbx
	movl	0(%rbp), %r13d
	movl	%eax, 0(%rbp)
	movl	8(%rdi), %eax
	movl	$730, %edi
	movl	(%rbx), %r12d
	movl	%eax, (%rbx)
	xorl	%eax, %eax
	call	__sgferr@PLT
	movl	%r13d, 0(%rbp)
	movl	%r12d, (%rbx)
	addq	$8, %rsp
	.cfi_def_cfa_offset 40
	popq	%rbx
	.cfi_def_cfa_offset 32
	popq	%rbp
	.cfi_def_cfa_offset 24
	popq	%r12
	.cfi_def_cfa_offset 16
	popq	%r13
	.cfi_def_cfa_offset 8
	ret
	.cfi_endproc
.LFE275:
	.size	__asl_real_qcol_warning, .-__asl_real_qcol_warning
	.p2align 4,,15
	.globl	__asl_sgn_lpow_2state
	.type	__asl_sgn_lpow_2state, @function
__asl_sgn_lpow_2state:
.LFB276:
	.cfi_startproc
	pushq	%r15
	.cfi_def_cfa_offset 16
	.cfi_offset 15, -16
	pushq	%r14
	.cfi_def_cfa_offset 24
	.cfi_offset 14, -24
	movq	%rdi, %r15
	pushq	%r13
	.cfi_def_cfa_offset 32
	.cfi_offset 13, -32
	pushq	%r12
	.cfi_def_cfa_offset 40
	.cfi_offset 12, -40
	movq	%rsi, %r14
	pushq	%rbp
	.cfi_def_cfa_offset 48
	.cfi_offset 6, -48
	leal	63(%rcx), %ebp
	pushq	%rbx
	.cfi_def_cfa_offset 56
	.cfi_offset 3, -56
	movl	%ecx, %ebx
	sarl	$6, %ebp
	subq	$72, %rsp
	.cfi_def_cfa_offset 128
	leal	0(,%rbp,8), %r13d
	movq	%rsi, 24(%rsp)
	movq	%rdx, 8(%rsp)
	xorl	%esi, %esi
	movq	%rdi, 16(%rsp)
	movslq	%r13d, %r13
	movq	%r13, %rdx
	call	memset@PLT
	movq	$1, (%r15)
	movl	%ebx, %esi
	movq	%r14, %rdi
	call	__is_lnegative@PLT
	testl	%eax, %eax
	movl	%eax, 36(%rsp)
	je	.L1615
	movq	__xspi@GOTPCREL(%rip), %r15
	movq	__maxxnest@GOTPCREL(%rip), %rcx
	movl	(%r15), %eax
	addl	$1, %eax
	cmpl	(%rcx), %eax
	movl	%eax, (%r15)
	jge	.L1672
.L1616:
	movq	__xstk@GOTPCREL(%rip), %r14
	cltq
	movq	(%r14), %rdx
	movq	(%rdx,%rax,8), %rax
	cmpl	%ebp, 4(%rax)
	jl	.L1673
.L1617:
	movq	8(%rax), %r12
	movq	24(%rsp), %rsi
	movl	%ebx, (%rax)
	movq	%rcx, 40(%rsp)
	leaq	(%r12,%r13), %rdx
	movq	%r12, %rdi
	movq	%rdx, 16(%rax)
	movl	%ebx, %edx
	call	__cp_lnegate@PLT
	movq	8(%rsp), %rdi
	movl	%ebx, %esi
	call	__is_lnegative@PLT
	testl	%eax, %eax
	movq	40(%rsp), %rcx
	je	.L1674
	movl	(%r15), %eax
	addl	$1, %eax
	cmpl	(%rcx), %eax
	movl	%eax, (%r15)
	jge	.L1675
.L1619:
	movq	(%r14), %rdx
	cltq
	movq	(%rdx,%rax,8), %r14
	cmpl	%ebp, 4(%r14)
	jl	.L1676
.L1620:
	movq	8(%r14), %rcx
	movq	8(%rsp), %rsi
	movl	%ebx, %edx
	movl	%ebx, (%r14)
	leaq	(%rcx,%r13), %rax
	movq	%rcx, %rdi
	movq	%rcx, 8(%rsp)
	movq	%rax, 16(%r14)
	call	__cp_lnegate@PLT
	movl	36(%rsp), %ecx
	testl	%ecx, %ecx
	je	.L1621
	cmpq	$1, (%r12)
	je	.L1677
.L1622:
	movq	16(%rsp), %rax
	movq	$0, (%rax)
.L1671:
	subl	$2, (%r15)
	xorl	%edx, %edx
.L1614:
	addq	$72, %rsp
	.cfi_remember_state
	.cfi_def_cfa_offset 56
	movl	%edx, %eax
	popq	%rbx
	.cfi_def_cfa_offset 48
	popq	%rbp
	.cfi_def_cfa_offset 40
	popq	%r12
	.cfi_def_cfa_offset 32
	popq	%r13
	.cfi_def_cfa_offset 24
	popq	%r14
	.cfi_def_cfa_offset 16
	popq	%r15
	.cfi_def_cfa_offset 8
	ret
	.p2align 4,,10
	.p2align 3
.L1615:
	.cfi_restore_state
	movq	8(%rsp), %rdi
	movl	%ebx, %esi
	call	__is_lnegative@PLT
	testl	%eax, %eax
	jne	.L1644
	movq	__xspi@GOTPCREL(%rip), %r15
	movq	__maxxnest@GOTPCREL(%rip), %rcx
	movl	$0, 40(%rsp)
	movq	__xstk@GOTPCREL(%rip), %r14
	movl	(%r15), %eax
	addl	$1, %eax
	cmpl	(%rcx), %eax
	movl	%eax, (%r15)
	jge	.L1678
.L1632:
	movq	(%r14), %rsi
	movslq	%eax, %rdx
	movq	(%rsi,%rdx,8), %r12
	cmpl	%ebp, 4(%r12)
	jl	.L1679
.L1633:
	movq	8(%r12), %rdx
	addl	$1, %eax
	movl	%ebx, (%r12)
	movl	%eax, (%r15)
	addq	%r13, %rdx
	cmpl	(%rcx), %eax
	movq	%rdx, 16(%r12)
	jge	.L1680
.L1634:
	movq	(%r14), %rsi
	movslq	%eax, %rdx
	movq	(%rsi,%rdx,8), %rdx
	cmpl	%ebp, 4(%rdx)
	jl	.L1681
.L1635:
	movq	8(%rdx), %rsi
	addl	$1, %eax
	movl	%ebx, (%rdx)
	movl	%eax, (%r15)
	addq	%r13, %rsi
	cmpl	(%rcx), %eax
	movq	%rsi, 16(%rdx)
	jge	.L1682
.L1636:
	movq	(%r14), %rcx
	cltq
	movq	(%rcx,%rax,8), %r14
	cmpl	%ebp, 4(%r14)
	jl	.L1683
.L1637:
	movq	8(%r14), %rbp
	movl	%ebx, (%r14)
	movq	8(%rsp), %rsi
	movq	8(%r12), %r12
	leaq	0(%rbp,%r13), %rax
	movq	%rax, 16(%r14)
	movq	8(%rdx), %r14
	movq	%r13, %rdx
	movq	%r14, %rdi
	call	memcpy@PLT
	movq	24(%rsp), %rsi
	movq	%r13, %rdx
	movq	%rbp, %rdi
	call	memcpy@PLT
	jmp	.L1641
	.p2align 4,,10
	.p2align 3
.L1638:
	movq	%rbp, %rdx
	movq	%rbp, %rsi
	movq	%r12, %rdi
	movl	%ebx, %ecx
	call	__lmult@PLT
	movq	%r13, %rdx
	movq	%r12, %rsi
	movq	%rbp, %rdi
	call	memcpy@PLT
.L1641:
	movl	(%r14), %eax
	movl	%ebx, %edx
	movl	$1, %esi
	movq	%r14, %rdi
	andl	$1, %eax
	movl	%eax, 8(%rsp)
	call	__mwrshift@PLT
	movl	8(%rsp), %edx
	testl	%edx, %edx
	je	.L1638
	movq	16(%rsp), %rsi
	movl	%ebx, %ecx
	movq	%rbp, %rdx
	movq	%r12, %rdi
	call	__lmult@PLT
	movq	16(%rsp), %rdi
	movq	%r13, %rdx
	movq	%r12, %rsi
	call	memcpy@PLT
	movl	%ebx, %esi
	movq	%r14, %rdi
	call	__wide_vval_is0@PLT
	testl	%eax, %eax
	je	.L1638
	movl	40(%rsp), %eax
	testl	%eax, %eax
	jne	.L1684
.L1639:
	cmpl	$1, 36(%rsp)
	movl	(%r15), %eax
	adcl	$-1, %eax
	xorl	%edx, %edx
	subl	$3, %eax
	movl	%eax, (%r15)
	jmp	.L1614
	.p2align 4,,10
	.p2align 3
.L1674:
	cmpq	$1, (%r12)
	je	.L1685
.L1628:
	movq	8(%rsp), %rax
	movq	(%rax), %rax
	movq	%rax, 24(%rsp)
	movl	24(%rsp), %eax
	movq	%r12, 24(%rsp)
	andl	$1, %eax
	movl	%eax, 40(%rsp)
	movl	(%r15), %eax
	addl	$1, %eax
	cmpl	(%rcx), %eax
	movl	%eax, (%r15)
	jl	.L1632
.L1678:
	movq	%rcx, 48(%rsp)
	call	__grow_xstk@PLT
	movl	(%r15), %eax
	movq	48(%rsp), %rcx
	jmp	.L1632
	.p2align 4,,10
	.p2align 3
.L1644:
	movq	__xspi@GOTPCREL(%rip), %r15
	movq	__maxxnest@GOTPCREL(%rip), %rcx
	movq	24(%rsp), %r12
	movq	__xstk@GOTPCREL(%rip), %r14
	movl	(%r15), %eax
	addl	$1, %eax
	cmpl	(%rcx), %eax
	movl	%eax, (%r15)
	jl	.L1619
	jmp	.L1675
	.p2align 4,,10
	.p2align 3
.L1621:
	movl	%ebx, %esi
	movq	%r12, %rdi
	call	__wide_vval_is0@PLT
	movl	%eax, %edx
	movq	16(%rsp), %rax
	movq	$0, (%rax)
	subl	$1, (%r15)
	testl	%edx, %edx
	je	.L1614
	movl	$1, %edx
	jmp	.L1614
	.p2align 4,,10
	.p2align 3
.L1672:
	movq	%rcx, 40(%rsp)
	call	__grow_xstk@PLT
	movl	(%r15), %eax
	movq	40(%rsp), %rcx
	jmp	.L1616
	.p2align 4,,10
	.p2align 3
.L1673:
	movq	%rax, %rdi
	movl	%ebp, %esi
	movq	%rcx, 48(%rsp)
	movq	%rax, 40(%rsp)
	call	__chg_xstk_width@PLT
	movq	48(%rsp), %rcx
	movq	40(%rsp), %rax
	jmp	.L1617
	.p2align 4,,10
	.p2align 3
.L1675:
	call	__grow_xstk@PLT
	movl	(%r15), %eax
	movq	(%r14), %rdx
	cltq
	movq	(%rdx,%rax,8), %r14
	cmpl	%ebp, 4(%r14)
	jge	.L1620
.L1676:
	movl	%ebp, %esi
	movq	%r14, %rdi
	call	__chg_xstk_width@PLT
	jmp	.L1620
	.p2align 4,,10
	.p2align 3
.L1685:
	leal	-64(%rbx), %esi
	leaq	8(%r12), %rdi
	movq	%rcx, 24(%rsp)
	movl	%eax, 40(%rsp)
	call	__wide_vval_is0@PLT
	testl	%eax, %eax
	movq	24(%rsp), %rcx
	je	.L1628
	movq	8(%rsp), %rax
	movl	40(%rsp), %edx
	testb	$1, (%rax)
	je	.L1629
	testl	%ebp, %ebp
	jle	.L1630
	movq	16(%rsp), %rdi
	leal	-1(%rbp), %ecx
	movq	%rdi, %rax
	leaq	8(%rdi,%rcx,8), %rsi
	movq	$-1, %rcx
	.p2align 4,,10
	.p2align 3
.L1631:
	movq	%rcx, (%rax)
	addq	$8, %rax
	cmpq	%rax, %rsi
	jne	.L1631
.L1630:
	movq	__masktab@GOTPCREL(%rip), %rax
	movq	16(%rsp), %rcx
	andl	$63, %ebx
	movq	(%rax,%rbx,8), %rax
	andq	%rax, -8(%rcx,%r13)
.L1629:
	subl	$1, (%r15)
	jmp	.L1614
	.p2align 4,,10
	.p2align 3
.L1684:
	movq	16(%rsp), %rdi
	movl	%ebx, %esi
	call	__inplace_lnegate@PLT
	jmp	.L1639
	.p2align 4,,10
	.p2align 3
.L1683:
	movl	%ebp, %esi
	movq	%r14, %rdi
	movq	%rdx, 48(%rsp)
	call	__chg_xstk_width@PLT
	movq	48(%rsp), %rdx
	jmp	.L1637
	.p2align 4,,10
	.p2align 3
.L1682:
	movq	%rdx, 48(%rsp)
	call	__grow_xstk@PLT
	movl	(%r15), %eax
	movq	48(%rsp), %rdx
	jmp	.L1636
	.p2align 4,,10
	.p2align 3
.L1681:
	movq	%rdx, %rdi
	movl	%ebp, %esi
	movq	%rcx, 56(%rsp)
	movq	%rdx, 48(%rsp)
	call	__chg_xstk_width@PLT
	movl	(%r15), %eax
	movq	56(%rsp), %rcx
	movq	48(%rsp), %rdx
	jmp	.L1635
	.p2align 4,,10
	.p2align 3
.L1680:
	movq	%rcx, 48(%rsp)
	call	__grow_xstk@PLT
	movl	(%r15), %eax
	movq	48(%rsp), %rcx
	jmp	.L1634
	.p2align 4,,10
	.p2align 3
.L1679:
	movl	%ebp, %esi
	movq	%r12, %rdi
	movq	%rcx, 48(%rsp)
	call	__chg_xstk_width@PLT
	movl	(%r15), %eax
	movq	48(%rsp), %rcx
	jmp	.L1633
	.p2align 4,,10
	.p2align 3
.L1677:
	leal	-64(%rbx), %esi
	leaq	8(%r12), %rdi
	call	__wide_vval_is0@PLT
	testl	%eax, %eax
	je	.L1622
	movq	8(%rsp), %rcx
	testb	$1, (%rcx)
	je	.L1671
	testl	%ebp, %ebp
	jle	.L1624
	movq	16(%rsp), %rcx
	leal	-1(%rbp), %edx
	movq	%rcx, %rax
	leaq	8(%rcx,%rdx,8), %rcx
	movq	$-1, %rdx
	.p2align 4,,10
	.p2align 3
.L1625:
	movq	%rdx, (%rax)
	addq	$8, %rax
	cmpq	%rcx, %rax
	jne	.L1625
.L1624:
	movq	__masktab@GOTPCREL(%rip), %rax
	movq	16(%rsp), %rcx
	andl	$63, %ebx
	movq	(%rax,%rbx,8), %rax
	andq	%rax, -8(%rcx,%r13)
	jmp	.L1671
	.cfi_endproc
.LFE276:
	.size	__asl_sgn_lpow_2state, .-__asl_sgn_lpow_2state
	.p2align 4,,15
	.globl	__asl_sgnmask
	.type	__asl_sgnmask, @function
__asl_sgnmask:
.LFB277:
	.cfi_startproc
	subl	%esi, %edx
	movl	%edx, %r8d
	sarl	$6, %r8d
	andl	$63, %edx
	movslq	%r8d, %r8
	leaq	0(,%r8,8), %r9
	jne	.L1687
	leaq	63(%rsi), %rdx
	shrq	$6, %rdx
	testq	%rdx, %rdx
	je	.L1689
	addq	%rdx, %r8
	leaq	(%rdi,%r9), %rax
	movq	$-1, %rdx
	leaq	0(,%r8,8), %r9
	leaq	(%rdi,%r9), %rcx
	.p2align 4,,10
	.p2align 3
.L1693:
	movq	%rdx, (%rax)
	addq	$8, %rax
	cmpq	%rcx, %rax
	jne	.L1693
.L1689:
	movq	__masktab@GOTPCREL(%rip), %rax
	andl	$63, %esi
	movq	(%rax,%rsi,8), %rax
	andq	%rax, -8(%rdi,%r9)
	ret
	.p2align 4,,10
	.p2align 3
.L1687:
	movl	$64, %eax
	movq	__masktab@GOTPCREL(%rip), %r11
	pushq	%rbx
	.cfi_def_cfa_offset 16
	.cfi_offset 3, -16
	subl	%edx, %eax
	movl	%edx, %ecx
	addl	%esi, %edx
	cltq
	movq	(%r11,%rax,8), %rbx
	salq	%cl, %rbx
	orq	%rbx, (%rdi,%r9)
	cmpl	$64, %edx
	je	.L1686
	subq	%rax, %rsi
	leaq	1(%r8), %rbx
	leaq	63(%rsi), %r10
	shrq	$6, %r10
	testq	%r10, %r10
	je	.L1691
	addq	%r10, %r8
	leaq	8(%rdi,%r9), %rax
	movq	$-1, %rdx
	leaq	8(%rdi,%r8,8), %rcx
	.p2align 4,,10
	.p2align 3
.L1692:
	movq	%rdx, (%rax)
	addq	$8, %rax
	cmpq	%rax, %rcx
	jne	.L1692
	addq	%r10, %rbx
.L1691:
	andl	$63, %esi
	movq	(%r11,%rsi,8), %rax
	andq	%rax, -8(%rdi,%rbx,8)
.L1686:
	popq	%rbx
	.cfi_def_cfa_offset 8
	ret
	.cfi_endproc
.LFE277:
	.size	__asl_sgnmask, .-__asl_sgnmask
	.p2align 4,,15
	.globl	__asl_mdprt_bsel
	.type	__asl_mdprt_bsel, @function
__asl_mdprt_bsel:
.LFB278:
	.cfi_startproc
	movq	16(%rdi), %rax
	movq	%rdx, %r10
	shrq	%rdx
	andl	$1, %r10d
	andl	$1, %edx
	movq	16(%rax), %rax
	movq	16(%rax), %rax
	movl	8(%rax), %r8d
	movq	24(%rdi), %rax
	movq	$-2, %rdi
	movslq	24(%rax), %rcx
	movq	__contab@GOTPCREL(%rip), %rax
	addl	$63, %r8d
	sarl	$6, %r8d
	movslq	%r8d, %r8
	movq	(%rax), %rax
	movq	(%rax,%rcx,8), %rax
	movl	%eax, %ecx
	sarl	$6, %eax
	cltq
	andl	$63, %ecx
	salq	$3, %rax
	rolq	%cl, %rdi
	salq	%cl, %r10
	leaq	(%rsi,%rax), %r11
	leaq	(%rax,%r8,8), %rax
	salq	%cl, %rdx
	movq	(%r11), %r9
	addq	%rax, %rsi
	andq	%rdi, %r9
	orq	%r10, %r9
	movq	%r9, (%r11)
	andq	(%rsi), %rdi
	orq	%rdi, %rdx
	movq	%rdx, (%rsi)
	ret
	.cfi_endproc
.LFE278:
	.size	__asl_mdprt_bsel, .-__asl_mdprt_bsel
	.p2align 4,,15
	.globl	__asl_mdprt_bsel_1w
	.type	__asl_mdprt_bsel_1w, @function
__asl_mdprt_bsel_1w:
.LFB279:
	.cfi_startproc
	movl	%edi, %ecx
	movq	(%rsi), %rdi
	movq	$-2, %rax
	rolq	%cl, %rax
	movq	%rdx, %r8
	shrq	%rdx
	andl	$1, %r8d
	andl	$1, %edx
	andq	%rax, %rdi
	andq	8(%rsi), %rax
	salq	%cl, %r8
	salq	%cl, %rdx
	orq	%r8, %rdi
	movq	%rdi, (%rsi)
	orq	%rax, %rdx
	movq	%rdx, 8(%rsi)
	ret
	.cfi_endproc
.LFE279:
	.size	__asl_mdprt_bsel_1w, .-__asl_mdprt_bsel_1w
	.p2align 4,,15
	.globl	__asl_mdprt_bsel_nchg
	.type	__asl_mdprt_bsel_nchg, @function
__asl_mdprt_bsel_nchg:
.LFB280:
	.cfi_startproc
	pushq	%rbp
	.cfi_def_cfa_offset 16
	.cfi_offset 6, -16
	pushq	%rbx
	.cfi_def_cfa_offset 24
	.cfi_offset 3, -24
	movq	%rcx, %r10
	movq	24(%rdi), %rax
	movq	16(%rdi), %rdi
	movq	%rdx, %r9
	movq	$-2, %r8
	andl	$1, %r9d
	shrq	%rdx
	andl	$1, %edx
	movslq	24(%rax), %rcx
	movq	__contab@GOTPCREL(%rip), %rax
	movq	16(%rdi), %rdi
	movq	(%rax), %rax
	movq	16(%rdi), %rdi
	movq	(%rax,%rcx,8), %rax
	movl	8(%rdi), %edi
	movl	%eax, %ecx
	sarl	$6, %eax
	cltq
	addl	$63, %edi
	andl	$63, %ecx
	salq	$3, %rax
	sarl	$6, %edi
	rolq	%cl, %r8
	leaq	(%rsi,%rax), %rbx
	movslq	%edi, %rdi
	salq	%cl, %r9
	leaq	(%rax,%rdi,8), %rax
	salq	%cl, %rdx
	movq	(%rbx), %r11
	addq	%rax, %rsi
	movq	%r11, %rbp
	andq	%r8, %rbp
	orq	%rbp, %r9
	cmpq	%r9, %r11
	je	.L1708
	movq	%r9, (%rbx)
	andq	(%rsi), %r8
	orq	%r8, %rdx
.L1711:
	movq	__nchg_futend@GOTPCREL(%rip), %rax
	movq	%rdx, (%rsi)
	movq	$1, (%r10)
	movq	$0, 48(%r10)
	movq	(%rax), %rdx
	movq	%r10, 48(%rdx)
	movq	%r10, (%rax)
	popq	%rbx
	.cfi_remember_state
	.cfi_def_cfa_offset 16
	popq	%rbp
	.cfi_def_cfa_offset 8
	ret
	.p2align 4,,10
	.p2align 3
.L1708:
	.cfi_restore_state
	movq	(%rsi), %rax
	andq	%rax, %r8
	orq	%r8, %rdx
	cmpq	%rdx, %rax
	jne	.L1711
	popq	%rbx
	.cfi_def_cfa_offset 16
	popq	%rbp
	.cfi_def_cfa_offset 8
	ret
	.cfi_endproc
.LFE280:
	.size	__asl_mdprt_bsel_nchg, .-__asl_mdprt_bsel_nchg
	.p2align 4,,15
	.globl	__asl_mdprt_bsel_nchg_1w
	.type	__asl_mdprt_bsel_nchg_1w, @function
__asl_mdprt_bsel_nchg_1w:
.LFB281:
	.cfi_startproc
	movq	(%rsi), %r10
	movq	%rdx, %r8
	movq	%rcx, %r9
	movq	$-2, %rax
	movl	%edi, %ecx
	andl	$1, %r8d
	rolq	%cl, %rax
	salq	%cl, %r8
	shrq	%rdx
	movq	%r10, %r11
	andl	$1, %edx
	andq	%rax, %r11
	salq	%cl, %rdx
	orq	%r11, %r8
	movq	8(%rsi), %r11
	andq	%r11, %rax
	orq	%rax, %rdx
	cmpq	%r8, %r10
	je	.L1714
	movq	%r8, (%rsi)
.L1716:
	movq	__nchg_futend@GOTPCREL(%rip), %rax
	movq	%rdx, 8(%rsi)
	movq	$1, (%r9)
	movq	$0, 48(%r9)
	movq	(%rax), %rdx
	movq	%r9, 48(%rdx)
	movq	%r9, (%rax)
	ret
	.p2align 4,,10
	.p2align 3
.L1714:
	cmpq	%r11, %rdx
	jne	.L1716
	rep ret
	.cfi_endproc
.LFE281:
	.size	__asl_mdprt_bsel_nchg_1w, .-__asl_mdprt_bsel_nchg_1w
	.p2align 4,,15
	.globl	__asl_mdprt_bsel_dmpv
	.type	__asl_mdprt_bsel_dmpv, @function
__asl_mdprt_bsel_dmpv:
.LFB282:
	.cfi_startproc
	pushq	%rbx
	.cfi_def_cfa_offset 16
	.cfi_offset 3, -16
	movq	16(%rdi), %rax
	movq	%rdx, %r10
	movq	$-2, %r9
	andl	$1, %r10d
	shrq	%rdx
	andl	$1, %edx
	movq	16(%rax), %rax
	movq	16(%rax), %rbx
	movq	24(%rdi), %rax
	movslq	24(%rax), %rcx
	movq	__contab@GOTPCREL(%rip), %rax
	movq	(%rax), %rax
	movq	(%rax,%rcx,8), %rax
	movl	%eax, %ecx
	sarl	$6, %eax
	cltq
	andl	$63, %ecx
	salq	$3, %rax
	rolq	%cl, %r9
	salq	%cl, %r10
	leaq	(%rsi,%rax), %rdi
	salq	%cl, %rdx
	movq	(%rdi), %r11
	movq	%r11, %r8
	andq	%r9, %r8
	orq	%r8, %r10
	movl	8(%rbx), %r8d
	addl	$63, %r8d
	sarl	$6, %r8d
	movslq	%r8d, %r8
	leaq	(%rax,%r8,8), %rax
	addq	%rax, %rsi
	cmpq	%r10, %r11
	jne	.L1722
	movq	(%rsi), %rax
	andq	%rax, %r9
	orq	%r9, %rdx
	cmpq	%rdx, %rax
	je	.L1718
	movq	%rdx, (%rsi)
	movq	%rbx, %rdi
	popq	%rbx
	.cfi_remember_state
	.cfi_def_cfa_offset 8
	jmp	asl_loc_add_dmpv_chglst_el_mdprt
	.p2align 4,,10
	.p2align 3
.L1718:
	.cfi_restore_state
	popq	%rbx
	.cfi_remember_state
	.cfi_def_cfa_offset 8
	ret
	.p2align 4,,10
	.p2align 3
.L1722:
	.cfi_restore_state
	movq	%r10, (%rdi)
	andq	(%rsi), %r9
	movq	%rbx, %rdi
	orq	%r9, %rdx
	movq	%rdx, (%rsi)
	popq	%rbx
	.cfi_def_cfa_offset 8
	jmp	asl_loc_add_dmpv_chglst_el_mdprt
	.cfi_endproc
.LFE282:
	.size	__asl_mdprt_bsel_dmpv, .-__asl_mdprt_bsel_dmpv
	.p2align 4,,15
	.globl	__asl_mdprt_bsel_1w_dmpv
	.type	__asl_mdprt_bsel_1w_dmpv, @function
__asl_mdprt_bsel_1w_dmpv:
.LFB283:
	.cfi_startproc
	movq	(%rsi), %r9
	movl	%edi, %r10d
	movq	%rdx, %r8
	movq	%rcx, %rdi
	movq	$-2, %rax
	movl	%r10d, %ecx
	rolq	%cl, %rax
	andl	$1, %r8d
	shrq	%rdx
	movq	%r9, %r11
	salq	%cl, %r8
	andl	$1, %edx
	andq	%rax, %r11
	salq	%cl, %rdx
	orq	%r11, %r8
	movq	8(%rsi), %r11
	andq	%r11, %rax
	orq	%rax, %rdx
	cmpq	%r8, %r9
	jne	.L1726
	cmpq	%rdx, %r11
	je	.L1723
	movq	%rdx, 8(%rsi)
	jmp	asl_loc_add_dmpv_chglst_el_mdprt
	.p2align 4,,10
	.p2align 3
.L1723:
	rep ret
	.p2align 4,,10
	.p2align 3
.L1726:
	movq	%r8, (%rsi)
	movq	%rdx, 8(%rsi)
	jmp	asl_loc_add_dmpv_chglst_el_mdprt
	.cfi_endproc
.LFE283:
	.size	__asl_mdprt_bsel_1w_dmpv, .-__asl_mdprt_bsel_1w_dmpv
	.p2align 4,,15
	.globl	__asl_mdprt_bsel_nchg_dmpv
	.type	__asl_mdprt_bsel_nchg_dmpv, @function
__asl_mdprt_bsel_nchg_dmpv:
.LFB284:
	.cfi_startproc
	pushq	%rbp
	.cfi_def_cfa_offset 16
	.cfi_offset 6, -16
	pushq	%rbx
	.cfi_def_cfa_offset 24
	.cfi_offset 3, -24
	movq	%rcx, %rbx
	movq	%rdx, %r10
	movq	$-2, %r9
	shrq	%rdx
	subq	$8, %rsp
	.cfi_def_cfa_offset 32
	movq	16(%rdi), %rax
	andl	$1, %r10d
	andl	$1, %edx
	movq	16(%rax), %rax
	movq	16(%rax), %rbp
	movq	24(%rdi), %rax
	movslq	24(%rax), %rcx
	movq	__contab@GOTPCREL(%rip), %rax
	movq	(%rax), %rax
	movq	(%rax,%rcx,8), %rax
	movl	%eax, %ecx
	sarl	$6, %eax
	cltq
	andl	$63, %ecx
	salq	$3, %rax
	rolq	%cl, %r9
	salq	%cl, %r10
